	.section	__TEXT,__text,regular,pure_instructions
	.build_version macos, 11, 0	sdk_version 11, 3
	.file	1 "/Library/Developer/CommandLineTools/SDKs/MacOSX.sdk/usr/include/c++/v1" "limits"
	.file	2 "/Library/Developer/CommandLineTools/SDKs/MacOSX.sdk/usr/include/c++/v1" "ios"
	.file	3 "/Library/Developer/CommandLineTools/usr/lib/clang/12.0.5/include" "stddef.h"
	.file	4 "/Library/Developer/CommandLineTools/SDKs/MacOSX.sdk/usr/include/i386" "_types.h"
	.file	5 "/Library/Developer/CommandLineTools/SDKs/MacOSX.sdk/usr/include/sys/_types" "_size_t.h"
	.file	6 "/Library/Developer/CommandLineTools/SDKs/MacOSX.sdk/usr/include/c++/v1" "__locale"
	.file	7 "/Library/Developer/CommandLineTools/SDKs/MacOSX.sdk/usr/include/c++/v1" "string"
	.file	8 "/Library/Developer/CommandLineTools/SDKs/MacOSX.sdk/usr/include/c++/v1" "memory"
	.file	9 "/Library/Developer/CommandLineTools/SDKs/MacOSX.sdk/usr/include/c++/v1" "type_traits"
	.file	10 "/Library/Developer/CommandLineTools/SDKs/MacOSX.sdk/usr/include/c++/v1" "string_view"
	.file	11 "/Library/Developer/CommandLineTools/SDKs/MacOSX.sdk/usr/include/c++/v1" "__string"
	.file	12 "/Library/Developer/CommandLineTools/SDKs/MacOSX.sdk/usr/include/c++/v1" "iosfwd"
	.file	13 "/Library/Developer/CommandLineTools/SDKs/MacOSX.sdk/usr/include/c++/v1" "mutex"
	.file	14 "/Library/Developer/CommandLineTools/SDKs/MacOSX.sdk/usr/include/sys/_types" "_int32_t.h"
	.file	15 "/Library/Developer/CommandLineTools/SDKs/MacOSX.sdk/usr/include/c++/v1" "__nullptr"
	.file	16 "/Library/Developer/CommandLineTools/SDKs/MacOSX.sdk/usr/include/c++/v1" "exception"
	.file	17 "/Library/Developer/CommandLineTools/SDKs/MacOSX.sdk/usr/include/c++/v1" "stdexcept"
	.file	18 "/Library/Developer/CommandLineTools/SDKs/MacOSX.sdk/usr/include/c++/v1" "vector"
	.file	19 "/Library/Developer/CommandLineTools/SDKs/MacOSX.sdk/usr/include" "_ctype.h"
	.file	20 "/Library/Developer/CommandLineTools/SDKs/MacOSX.sdk/usr/include/c++/v1" "cctype"
	.file	21 "/Library/Developer/CommandLineTools/SDKs/MacOSX.sdk/usr/include" "_locale.h"
	.file	22 "/Library/Developer/CommandLineTools/SDKs/MacOSX.sdk/usr/include/c++/v1" "clocale"
	.file	23 "/Library/Developer/CommandLineTools/SDKs/MacOSX.sdk/usr/include" "locale.h"
	.file	24 "/Library/Developer/CommandLineTools/SDKs/MacOSX.sdk/usr/include/c++/v1" "cstddef"
	.file	25 "/Library/Developer/CommandLineTools/SDKs/MacOSX.sdk/usr/include/c++/v1" "math.h"
	.file	26 "/Library/Developer/CommandLineTools/SDKs/MacOSX.sdk/usr/include/c++/v1" "cmath"
	.file	27 "/Library/Developer/CommandLineTools/SDKs/MacOSX.sdk/usr/include" "math.h"
	.file	28 "/Library/Developer/CommandLineTools/SDKs/MacOSX.sdk/usr/include/c++/v1" "stdlib.h"
	.file	29 "/Library/Developer/CommandLineTools/SDKs/MacOSX.sdk/usr/include" "setjmp.h"
	.file	30 "/Library/Developer/CommandLineTools/SDKs/MacOSX.sdk/usr/include/c++/v1" "csetjmp"
	.file	31 "/Library/Developer/CommandLineTools/SDKs/MacOSX.sdk/usr/include/i386" "signal.h"
	.file	32 "/Library/Developer/CommandLineTools/SDKs/MacOSX.sdk/usr/include/c++/v1" "csignal"
	.file	33 "/Library/Developer/CommandLineTools/SDKs/MacOSX.sdk/usr/include/sys" "signal.h"
	.file	34 "/Library/Developer/CommandLineTools/SDKs/MacOSX.sdk/usr/include" "signal.h"
	.file	35 "/Library/Developer/CommandLineTools/usr/lib/clang/12.0.5/include" "stdarg.h"
	.file	36 "/Library/Developer/CommandLineTools/SDKs/MacOSX.sdk/usr/include/c++/v1" "cstdarg"
	.file	37 "/Library/Developer/CommandLineTools/SDKs/MacOSX.sdk/usr/include" "_stdio.h"
	.file	38 "/Library/Developer/CommandLineTools/SDKs/MacOSX.sdk/usr/include/sys" "_types.h"
	.file	39 "/Library/Developer/CommandLineTools/SDKs/MacOSX.sdk/usr/include/c++/v1" "cstdio"
	.file	40 "/Library/Developer/CommandLineTools/SDKs/MacOSX.sdk/usr/include" "stdio.h"
	.file	41 "/Library/Developer/CommandLineTools/SDKs/MacOSX.sdk/usr/include/c++/v1" "cstdlib"
	.file	42 "/Library/Developer/CommandLineTools/SDKs/MacOSX.sdk/usr/include" "stdlib.h"
	.file	43 "/Library/Developer/CommandLineTools/SDKs/MacOSX.sdk/usr/include/malloc" "_malloc.h"
	.file	44 "/Library/Developer/CommandLineTools/SDKs/MacOSX.sdk/usr/include/c++/v1" "cstring"
	.file	45 "/Library/Developer/CommandLineTools/SDKs/MacOSX.sdk/usr/include" "string.h"
	.file	46 "/Library/Developer/CommandLineTools/SDKs/MacOSX.sdk/usr/include/c++/v1" "string.h"
	.file	47 "/Library/Developer/CommandLineTools/SDKs/MacOSX.sdk/usr/include/sys/_types" "_clock_t.h"
	.file	48 "/Library/Developer/CommandLineTools/SDKs/MacOSX.sdk/usr/include/c++/v1" "ctime"
	.file	49 "/Library/Developer/CommandLineTools/SDKs/MacOSX.sdk/usr/include/sys/_types" "_time_t.h"
	.file	50 "/Library/Developer/CommandLineTools/SDKs/MacOSX.sdk/usr/include" "time.h"
	.file	51 "/Library/Developer/CommandLineTools/SDKs/MacOSX.sdk/usr/include/sys/_types" "_wint_t.h"
	.file	52 "/Library/Developer/CommandLineTools/SDKs/MacOSX.sdk/usr/include/c++/v1" "cwctype"
	.file	53 "/Library/Developer/CommandLineTools/SDKs/MacOSX.sdk/usr/include" "_types.h"
	.file	54 "/Library/Developer/CommandLineTools/SDKs/MacOSX.sdk/usr/include/_types" "_wctrans_t.h"
	.file	55 "/Library/Developer/CommandLineTools/SDKs/MacOSX.sdk/usr/include/_types" "_wctype_t.h"
	.file	56 "/Library/Developer/CommandLineTools/SDKs/MacOSX.sdk/usr/include" "_wctype.h"
	.file	57 "/Library/Developer/CommandLineTools/SDKs/MacOSX.sdk/usr/include" "wctype.h"
	.file	58 "/Library/Developer/CommandLineTools/SDKs/MacOSX.sdk/usr/include/c++/v1" "stddef.h"
	.file	59 "/Library/Developer/CommandLineTools/SDKs/MacOSX.sdk/usr/include/sys/_types" "_mbstate_t.h"
	.file	60 "/Library/Developer/CommandLineTools/SDKs/MacOSX.sdk/usr/include/c++/v1" "cwchar"
	.file	61 "/Library/Developer/CommandLineTools/SDKs/MacOSX.sdk/usr/include" "wchar.h"
	.file	62 "/Library/Developer/CommandLineTools/SDKs/MacOSX.sdk/usr/include/c++/v1" "wchar.h"
	.file	63 "/Library/Developer/CommandLineTools/SDKs/MacOSX.sdk/usr/include/sys/_types" "_int8_t.h"
	.file	64 "/Library/Developer/CommandLineTools/SDKs/MacOSX.sdk/usr/include/c++/v1" "cstdint"
	.file	65 "/Library/Developer/CommandLineTools/SDKs/MacOSX.sdk/usr/include/sys/_types" "_int16_t.h"
	.file	66 "/Library/Developer/CommandLineTools/SDKs/MacOSX.sdk/usr/include/sys/_types" "_int64_t.h"
	.file	67 "/Library/Developer/CommandLineTools/SDKs/MacOSX.sdk/usr/include/_types" "_uint8_t.h"
	.file	68 "/Library/Developer/CommandLineTools/SDKs/MacOSX.sdk/usr/include/_types" "_uint16_t.h"
	.file	69 "/Library/Developer/CommandLineTools/SDKs/MacOSX.sdk/usr/include/_types" "_uint32_t.h"
	.file	70 "/Library/Developer/CommandLineTools/SDKs/MacOSX.sdk/usr/include/_types" "_uint64_t.h"
	.file	71 "/Library/Developer/CommandLineTools/SDKs/MacOSX.sdk/usr/include" "stdint.h"
	.file	72 "/Library/Developer/CommandLineTools/SDKs/MacOSX.sdk/usr/include/sys/_types" "_intptr_t.h"
	.file	73 "/Library/Developer/CommandLineTools/SDKs/MacOSX.sdk/usr/include/sys/_types" "_uintptr_t.h"
	.file	74 "/Library/Developer/CommandLineTools/SDKs/MacOSX.sdk/usr/include/_types" "_intmax_t.h"
	.file	75 "/Library/Developer/CommandLineTools/SDKs/MacOSX.sdk/usr/include/_types" "_uintmax_t.h"
	.file	76 "/Users/dhruvpatel/desktop/competitive-coding/blind75/arrays/SearchinRotatedSortedArray/ContainerWithMostWater" "ContainerWithMostWater.cpp"
	.globl	__Z5solvev                      ## -- Begin function _Z5solvev
	.p2align	4, 0x90
__Z5solvev:                             ## @_Z5solvev
Lfunc_begin0:
	.loc	76 18 0                         ## ContainerWithMostWater.cpp:18:0
	.cfi_startproc
	.cfi_personality 155, ___gxx_personality_v0
	.cfi_lsda 16, Lexception0
## %bb.0:
	pushq	%rbp
	.cfi_def_cfa_offset 16
	.cfi_offset %rbp, -16
	movq	%rsp, %rbp
	.cfi_def_cfa_register %rbp
Ltmp11:
	pushq	%r15
	pushq	%r14
	pushq	%rbx
	subq	$40, %rsp
	.cfi_offset %rbx, -40
	.cfi_offset %r14, -32
	.cfi_offset %r15, -24
Ltmp12:
	##DEBUG_VALUE: solve:n <- [DW_OP_constu 28, DW_OP_minus, DW_OP_deref] $rbp
	.loc	76 19 12 prologue_end           ## ContainerWithMostWater.cpp:19:12
	movq	__ZNSt3__13cinE@GOTPCREL(%rip), %rdi
	leaq	-28(%rbp), %rsi
	callq	__ZNSt3__113basic_istreamIcNS_11char_traitsIcEEErsERi
Ltmp13:
	.loc	76 20 16                        ## ContainerWithMostWater.cpp:20:16
	movslq	-28(%rbp), %rbx
Ltmp14:
	.loc	18 437 7                        ## /Library/Developer/CommandLineTools/SDKs/MacOSX.sdk/usr/include/c++/v1/vector:437:7
	xorps	%xmm0, %xmm0
	movaps	%xmm0, -64(%rbp)
	movq	$0, -48(%rbp)
Ltmp15:
	.loc	76 20 16                        ## ContainerWithMostWater.cpp:20:16
	testq	%rbx, %rbx
Ltmp16:
	##DEBUG_VALUE: vector:__n <- $rbx
	##DEBUG_VALUE: vector:__n <- $rbx
	##DEBUG_VALUE: __vector_base:this <- [DW_OP_constu 64, DW_OP_minus, DW_OP_stack_value] $rbp
	##DEBUG_VALUE: vector:this <- [DW_OP_constu 64, DW_OP_minus, DW_OP_stack_value] $rbp
	##DEBUG_VALUE: vector:this <- [DW_OP_constu 64, DW_OP_minus, DW_OP_stack_value] $rbp
	##DEBUG_VALUE: solve:n <- undef
	.loc	18 1127 9                       ## /Library/Developer/CommandLineTools/SDKs/MacOSX.sdk/usr/include/c++/v1/vector:1127:9
	je	LBB0_6
Ltmp17:
## %bb.1:
	##DEBUG_VALUE: vector:__n <- $rbx
	##DEBUG_VALUE: vector:__n <- $rbx
	##DEBUG_VALUE: vector:this <- [DW_OP_constu 64, DW_OP_minus, DW_OP_stack_value] $rbp
	##DEBUG_VALUE: vector:this <- [DW_OP_constu 64, DW_OP_minus, DW_OP_stack_value] $rbp
	##DEBUG_VALUE: __vallocate:this <- [DW_OP_constu 64, DW_OP_minus, DW_OP_stack_value] $rbp
	##DEBUG_VALUE: __vallocate:__n <- $rbx
	.loc	18 994 13                       ## /Library/Developer/CommandLineTools/SDKs/MacOSX.sdk/usr/include/c++/v1/vector:994:13
	testl	%ebx, %ebx
Ltmp18:
	.loc	18 994 9 is_stmt 0              ## /Library/Developer/CommandLineTools/SDKs/MacOSX.sdk/usr/include/c++/v1/vector:994:9
	js	LBB0_2
Ltmp19:
## %bb.4:
	##DEBUG_VALUE: __vallocate:__n <- $rbx
	##DEBUG_VALUE: vector:__n <- $rbx
	##DEBUG_VALUE: vector:__n <- $rbx
	##DEBUG_VALUE: __vallocate:this <- [DW_OP_constu 64, DW_OP_minus, DW_OP_stack_value] $rbp
	##DEBUG_VALUE: vector:this <- [DW_OP_constu 64, DW_OP_minus, DW_OP_stack_value] $rbp
	##DEBUG_VALUE: vector:this <- [DW_OP_constu 64, DW_OP_minus, DW_OP_stack_value] $rbp
	##DEBUG_VALUE: allocate:__a <- undef
	##DEBUG_VALUE: allocate:__n <- $rbx
	##DEBUG_VALUE: allocate:this <- undef
	##DEBUG_VALUE: allocate:__n <- $rbx
	.loc	8 1664 63 is_stmt 1             ## /Library/Developer/CommandLineTools/SDKs/MacOSX.sdk/usr/include/c++/v1/memory:1664:63
	leaq	(,%rbx,4), %r14
Ltmp20:
	##DEBUG_VALUE: __libcpp_allocate:__align <- undef
Ltmp0:
	##DEBUG_VALUE: __libcpp_allocate:__size <- $r14
	.file	77 "/Library/Developer/CommandLineTools/SDKs/MacOSX.sdk/usr/include/c++/v1" "new"
	.loc	77 253 10                       ## /Library/Developer/CommandLineTools/SDKs/MacOSX.sdk/usr/include/c++/v1/new:253:10
	movq	%r14, %rdi
	callq	__Znwm
Ltmp21:
Ltmp1:
## %bb.5:
	##DEBUG_VALUE: __vallocate:__n <- $rbx
	##DEBUG_VALUE: vector:__n <- $rbx
	##DEBUG_VALUE: vector:__n <- $rbx
	##DEBUG_VALUE: __vallocate:this <- [DW_OP_constu 64, DW_OP_minus, DW_OP_stack_value] $rbp
	##DEBUG_VALUE: vector:this <- [DW_OP_constu 64, DW_OP_minus, DW_OP_stack_value] $rbp
	##DEBUG_VALUE: vector:this <- [DW_OP_constu 64, DW_OP_minus, DW_OP_stack_value] $rbp
	.loc	18 996 20                       ## /Library/Developer/CommandLineTools/SDKs/MacOSX.sdk/usr/include/c++/v1/vector:996:20
	movq	%rax, -64(%rbp)
	.loc	18 997 40                       ## /Library/Developer/CommandLineTools/SDKs/MacOSX.sdk/usr/include/c++/v1/vector:997:40
	leaq	(%rax,%rbx,4), %r15
Ltmp22:
	##DEBUG_VALUE: __get:this <- [DW_OP_constu 64, DW_OP_minus, DW_OP_plus_uconst 16, DW_OP_stack_value] $rbp
	##DEBUG_VALUE: first:this <- [DW_OP_constu 64, DW_OP_minus, DW_OP_plus_uconst 16, DW_OP_stack_value] $rbp
	##DEBUG_VALUE: __end_cap:this <- [DW_OP_constu 64, DW_OP_minus, DW_OP_stack_value] $rbp
	.loc	18 997 23 is_stmt 0             ## /Library/Developer/CommandLineTools/SDKs/MacOSX.sdk/usr/include/c++/v1/vector:997:23
	movq	%r15, -48(%rbp)
Ltmp23:
	##DEBUG_VALUE: __pos <- $rax
	##DEBUG_VALUE: __construct_at_end:__tx <- [DW_OP_LLVM_fragment 64 64] $rax
	##DEBUG_VALUE: __construct_at_end:__tx <- [DW_OP_constu 64, DW_OP_minus, DW_OP_stack_value, DW_OP_LLVM_fragment 0 64] $rbp
	##DEBUG_VALUE: _ConstructTransaction:__n <- $rbx
	##DEBUG_VALUE: _ConstructTransaction:__v <- [DW_OP_constu 64, DW_OP_minus, DW_OP_stack_value] $rbp
	##DEBUG_VALUE: _ConstructTransaction:this <- undef
	##DEBUG_VALUE: _ConstructTransaction:__n <- $rbx
	##DEBUG_VALUE: _ConstructTransaction:__v <- [DW_OP_constu 64, DW_OP_minus, DW_OP_stack_value] $rbp
	##DEBUG_VALUE: _ConstructTransaction:this <- undef
	##DEBUG_VALUE: __construct_at_end:__n <- $rbx
	##DEBUG_VALUE: __construct_at_end:this <- [DW_OP_constu 64, DW_OP_minus, DW_OP_stack_value] $rbp
	.loc	8 1684 13 is_stmt 1             ## /Library/Developer/CommandLineTools/SDKs/MacOSX.sdk/usr/include/c++/v1/memory:1684:13
	movq	%rax, %rdi
	movq	%r14, %rsi
	callq	___bzero
Ltmp24:
	##DEBUG_VALUE: ~_ConstructTransaction:this <- undef
	##DEBUG_VALUE: ~_ConstructTransaction:this <- undef
	##DEBUG_VALUE: construct<int>:__p <- undef
	##DEBUG_VALUE: construct<int>:this <- undef
	##DEBUG_VALUE: __construct<int>:__p <- undef
	##DEBUG_VALUE: __construct<int>:__a <- undef
	##DEBUG_VALUE: __construct<int>: <- undef
	##DEBUG_VALUE: construct<int>:__p <- undef
	##DEBUG_VALUE: construct<int>:__a <- undef
	##DEBUG_VALUE: __pos <- [DW_OP_plus_uconst 4, DW_OP_stack_value] undef
	##DEBUG_VALUE: __construct_at_end:__tx <- [DW_OP_LLVM_fragment 64 64] $r15
	.loc	18 905 19                       ## /Library/Developer/CommandLineTools/SDKs/MacOSX.sdk/usr/include/c++/v1/vector:905:19
	movq	%r15, -56(%rbp)
Ltmp25:
LBB0_6:
	##DEBUG_VALUE: i <- 0
	.loc	76 20 33                        ## ContainerWithMostWater.cpp:20:33
	testl	%ebx, %ebx
Ltmp26:
	##DEBUG_VALUE: solve:n <- undef
	.loc	76 20 20 is_stmt 0              ## ContainerWithMostWater.cpp:20:20
	jle	LBB0_10
Ltmp27:
## %bb.7:
	##DEBUG_VALUE: i <- 0
	.loc	76 0 20                         ## ContainerWithMostWater.cpp:0:20
	xorl	%r15d, %r15d
	movq	__ZNSt3__13cinE@GOTPCREL(%rip), %r14
	xorl	%ebx, %ebx
Ltmp28:
	.p2align	4, 0x90
LBB0_8:                                 ## =>This Inner Loop Header: Depth=1
	##DEBUG_VALUE: operator[]:this <- [DW_OP_constu 64, DW_OP_minus, DW_OP_stack_value] $rbp
	##DEBUG_VALUE: operator[]:__n <- $rbx
	movq	-64(%rbp), %rsi
Ltmp29:
	##DEBUG_VALUE: i <- [DW_OP_plus_uconst 1, DW_OP_stack_value] $rbx
	.loc	76 20 39                        ## ContainerWithMostWater.cpp:20:39
	addq	%r15, %rsi
Ltmp5:
	movq	%r14, %rdi
	callq	__ZNSt3__113basic_istreamIcNS_11char_traitsIcEEErsERi
Ltmp30:
Ltmp6:
## %bb.9:                               ##   in Loop: Header=BB0_8 Depth=1
	##DEBUG_VALUE: i <- [DW_OP_plus_uconst 1, DW_OP_stack_value] $rbx
	.loc	76 20 44                        ## ContainerWithMostWater.cpp:20:44
	incq	%rbx
Ltmp31:
	##DEBUG_VALUE: i <- $rbx
	.loc	76 20 34                        ## ContainerWithMostWater.cpp:20:34
	movslq	-28(%rbp), %rax
Ltmp32:
	##DEBUG_VALUE: solve:n <- undef
	.loc	76 20 33                        ## ContainerWithMostWater.cpp:20:33
	addq	$4, %r15
	cmpq	%rax, %rbx
Ltmp33:
	.loc	76 20 20                        ## ContainerWithMostWater.cpp:20:20
	jl	LBB0_8
Ltmp34:
LBB0_10:
Ltmp8:
	##DEBUG_VALUE: solve:ans <- -1
	.loc	76 23 6 is_stmt 1               ## ContainerWithMostWater.cpp:23:6
	movq	__ZNSt3__14coutE@GOTPCREL(%rip), %rdi
	movl	$-1, %esi
	callq	__ZNSt3__113basic_ostreamIcNS_11char_traitsIcEEElsEi
Ltmp35:
Ltmp9:
## %bb.11:
	##DEBUG_VALUE: solve:ans <- -1
	##DEBUG_VALUE: ~vector:this <- [DW_OP_constu 64, DW_OP_minus, DW_OP_stack_value] $rbp
	##DEBUG_VALUE: ~vector:this <- [DW_OP_constu 64, DW_OP_minus, DW_OP_stack_value] $rbp
	##DEBUG_VALUE: ~__vector_base:this <- [DW_OP_constu 64, DW_OP_minus, DW_OP_stack_value] $rbp
	.loc	18 463 9                        ## /Library/Developer/CommandLineTools/SDKs/MacOSX.sdk/usr/include/c++/v1/vector:463:9
	movq	-64(%rbp), %rdi
	.loc	18 463 18 is_stmt 0             ## /Library/Developer/CommandLineTools/SDKs/MacOSX.sdk/usr/include/c++/v1/vector:463:18
	testq	%rdi, %rdi
Ltmp36:
	.loc	18 463 9                        ## /Library/Developer/CommandLineTools/SDKs/MacOSX.sdk/usr/include/c++/v1/vector:463:9
	je	LBB0_13
Ltmp37:
## %bb.12:
	##DEBUG_VALUE: ~__vector_base:this <- [DW_OP_constu 64, DW_OP_minus, DW_OP_stack_value] $rbp
	##DEBUG_VALUE: ~vector:this <- [DW_OP_constu 64, DW_OP_minus, DW_OP_stack_value] $rbp
	##DEBUG_VALUE: ~vector:this <- [DW_OP_constu 64, DW_OP_minus, DW_OP_stack_value] $rbp
	##DEBUG_VALUE: solve:ans <- -1
	##DEBUG_VALUE: ~__vector_base:this <- [DW_OP_constu 64, DW_OP_minus, DW_OP_stack_value] $rbp
	##DEBUG_VALUE: clear:this <- [DW_OP_constu 64, DW_OP_minus, DW_OP_stack_value] $rbp
	##DEBUG_VALUE: __destruct_at_end:this <- [DW_OP_constu 64, DW_OP_minus, DW_OP_stack_value] $rbp
	##DEBUG_VALUE: __destruct_at_end:__new_last <- undef
	##DEBUG_VALUE: __destruct_at_end:__soon_to_be_end <- [DW_OP_constu 4, DW_OP_minus, DW_OP_stack_value] undef
	.loc	18 429 12 is_stmt 1             ## /Library/Developer/CommandLineTools/SDKs/MacOSX.sdk/usr/include/c++/v1/vector:429:12
	movq	%rdi, -56(%rbp)
Ltmp38:
	##DEBUG_VALUE: __do_call:__ptr <- $rdi
	##DEBUG_VALUE: __do_deallocate_handle_size:__size <- [DW_OP_constu 2, DW_OP_shl, DW_OP_stack_value] undef
	##DEBUG_VALUE: __do_deallocate_handle_size:__ptr <- $rdi
	##DEBUG_VALUE: __do_deallocate_handle_size_align:__align <- undef
	##DEBUG_VALUE: __do_deallocate_handle_size_align:__size <- [DW_OP_constu 2, DW_OP_shl, DW_OP_stack_value] undef
	##DEBUG_VALUE: __do_deallocate_handle_size_align:__ptr <- $rdi
	##DEBUG_VALUE: __libcpp_deallocate:__align <- 4
	##DEBUG_VALUE: __libcpp_deallocate:__size <- [DW_OP_constu 2, DW_OP_shl, DW_OP_stack_value] undef
	##DEBUG_VALUE: __libcpp_deallocate:__ptr <- $rdi
	##DEBUG_VALUE: deallocate:__n <- undef
	##DEBUG_VALUE: deallocate:__p <- $rdi
	##DEBUG_VALUE: deallocate:this <- undef
	##DEBUG_VALUE: deallocate:__n <- undef
	##DEBUG_VALUE: deallocate:__p <- $rdi
	##DEBUG_VALUE: deallocate:__a <- undef
	.loc	77 334 12                       ## /Library/Developer/CommandLineTools/SDKs/MacOSX.sdk/usr/include/c++/v1/new:334:12
	callq	__ZdlPv
Ltmp39:
LBB0_13:
	##DEBUG_VALUE: solve:ans <- -1
	.loc	76 24 1                         ## ContainerWithMostWater.cpp:24:1
	addq	$40, %rsp
	popq	%rbx
	popq	%r14
	popq	%r15
	popq	%rbp
	retq
Ltmp40:
LBB0_2:
	##DEBUG_VALUE: __vallocate:__n <- $rbx
	##DEBUG_VALUE: vector:__n <- $rbx
	##DEBUG_VALUE: vector:__n <- $rbx
	##DEBUG_VALUE: __vallocate:this <- [DW_OP_constu 64, DW_OP_minus, DW_OP_stack_value] $rbp
	##DEBUG_VALUE: vector:this <- [DW_OP_constu 64, DW_OP_minus, DW_OP_stack_value] $rbp
	##DEBUG_VALUE: vector:this <- [DW_OP_constu 64, DW_OP_minus, DW_OP_stack_value] $rbp
Ltmp2:
	.loc	76 0 1 is_stmt 0                ## ContainerWithMostWater.cpp:0:1
	leaq	-64(%rbp), %rdi
Ltmp41:
	.loc	18 995 15 is_stmt 1             ## /Library/Developer/CommandLineTools/SDKs/MacOSX.sdk/usr/include/c++/v1/vector:995:15
	callq	__ZNKSt3__120__vector_base_commonILb1EE20__throw_length_errorEv
Ltmp42:
Ltmp3:
## %bb.3:
	##DEBUG_VALUE: __vallocate:__n <- $rbx
	##DEBUG_VALUE: vector:__n <- $rbx
	##DEBUG_VALUE: vector:__n <- $rbx
	##DEBUG_VALUE: __vallocate:this <- [DW_OP_constu 64, DW_OP_minus, DW_OP_stack_value] $rbp
	##DEBUG_VALUE: vector:this <- [DW_OP_constu 64, DW_OP_minus, DW_OP_stack_value] $rbp
	##DEBUG_VALUE: vector:this <- [DW_OP_constu 64, DW_OP_minus, DW_OP_stack_value] $rbp
	ud2
Ltmp43:
LBB0_14:
	##DEBUG_VALUE: __vallocate:__n <- $rbx
	##DEBUG_VALUE: vector:__n <- $rbx
	##DEBUG_VALUE: vector:__n <- $rbx
	##DEBUG_VALUE: __vallocate:this <- [DW_OP_constu 64, DW_OP_minus, DW_OP_stack_value] $rbp
	##DEBUG_VALUE: vector:this <- [DW_OP_constu 64, DW_OP_minus, DW_OP_stack_value] $rbp
	##DEBUG_VALUE: vector:this <- [DW_OP_constu 64, DW_OP_minus, DW_OP_stack_value] $rbp
Ltmp4:
	.loc	18 0 15 is_stmt 0               ## /Library/Developer/CommandLineTools/SDKs/MacOSX.sdk/usr/include/c++/v1/vector:0:15
	jmp	LBB0_17
Ltmp44:
LBB0_16:
	##DEBUG_VALUE: solve:ans <- -1
Ltmp10:
	jmp	LBB0_17
Ltmp45:
LBB0_15:
	##DEBUG_VALUE: i <- [DW_OP_plus_uconst 1, DW_OP_stack_value] $rbx
	##DEBUG_VALUE: operator[]:__n <- $rbx
	##DEBUG_VALUE: operator[]:this <- [DW_OP_constu 64, DW_OP_minus, DW_OP_stack_value] $rbp
Ltmp7:
LBB0_17:
	movq	%rax, %rbx
Ltmp46:
	##DEBUG_VALUE: ~vector:this <- [DW_OP_constu 64, DW_OP_minus, DW_OP_stack_value] $rbp
	##DEBUG_VALUE: ~vector:this <- [DW_OP_constu 64, DW_OP_minus, DW_OP_stack_value] $rbp
	##DEBUG_VALUE: ~__vector_base:this <- [DW_OP_constu 64, DW_OP_minus, DW_OP_stack_value] $rbp
	movq	-64(%rbp), %rdi
	testq	%rdi, %rdi
	je	LBB0_19
Ltmp47:
## %bb.18:
	##DEBUG_VALUE: ~__vector_base:this <- [DW_OP_constu 64, DW_OP_minus, DW_OP_stack_value] $rbp
	##DEBUG_VALUE: ~vector:this <- [DW_OP_constu 64, DW_OP_minus, DW_OP_stack_value] $rbp
	##DEBUG_VALUE: ~vector:this <- [DW_OP_constu 64, DW_OP_minus, DW_OP_stack_value] $rbp
	##DEBUG_VALUE: ~__vector_base:this <- [DW_OP_constu 64, DW_OP_minus, DW_OP_stack_value] $rbp
	##DEBUG_VALUE: clear:this <- [DW_OP_constu 64, DW_OP_minus, DW_OP_stack_value] $rbp
	##DEBUG_VALUE: __destruct_at_end:this <- [DW_OP_constu 64, DW_OP_minus, DW_OP_stack_value] $rbp
	##DEBUG_VALUE: __destruct_at_end:__new_last <- undef
	##DEBUG_VALUE: __destruct_at_end:__soon_to_be_end <- [DW_OP_constu 4, DW_OP_minus, DW_OP_stack_value] undef
	movq	%rdi, -56(%rbp)
Ltmp48:
	##DEBUG_VALUE: __do_call:__ptr <- $rdi
	##DEBUG_VALUE: __do_deallocate_handle_size:__size <- [DW_OP_constu 2, DW_OP_shl, DW_OP_stack_value] undef
	##DEBUG_VALUE: __do_deallocate_handle_size:__ptr <- $rdi
	##DEBUG_VALUE: __do_deallocate_handle_size_align:__align <- undef
	##DEBUG_VALUE: __do_deallocate_handle_size_align:__size <- [DW_OP_constu 2, DW_OP_shl, DW_OP_stack_value] undef
	##DEBUG_VALUE: __do_deallocate_handle_size_align:__ptr <- $rdi
	##DEBUG_VALUE: __libcpp_deallocate:__align <- 4
	##DEBUG_VALUE: __libcpp_deallocate:__size <- [DW_OP_constu 2, DW_OP_shl, DW_OP_stack_value] undef
	##DEBUG_VALUE: __libcpp_deallocate:__ptr <- $rdi
	##DEBUG_VALUE: deallocate:__n <- undef
	##DEBUG_VALUE: deallocate:__p <- $rdi
	##DEBUG_VALUE: deallocate:this <- undef
	##DEBUG_VALUE: deallocate:__n <- undef
	##DEBUG_VALUE: deallocate:__p <- $rdi
	##DEBUG_VALUE: deallocate:__a <- undef
	callq	__ZdlPv
Ltmp49:
LBB0_19:
	##DEBUG_VALUE: ~__vector_base:this <- [DW_OP_constu 64, DW_OP_minus, DW_OP_stack_value] $rbp
	##DEBUG_VALUE: ~vector:this <- [DW_OP_constu 64, DW_OP_minus, DW_OP_stack_value] $rbp
	##DEBUG_VALUE: ~vector:this <- [DW_OP_constu 64, DW_OP_minus, DW_OP_stack_value] $rbp
	movq	%rbx, %rdi
	callq	__Unwind_Resume
Ltmp50:
	ud2
Lfunc_end0:
	.cfi_endproc
	.section	__TEXT,__gcc_except_tab
	.p2align	2
GCC_except_table0:
Lexception0:
	.byte	255                             ## @LPStart Encoding = omit
	.byte	255                             ## @TType Encoding = omit
	.byte	1                               ## Call site Encoding = uleb128
	.uleb128 Lcst_end0-Lcst_begin0
Lcst_begin0:
	.uleb128 Lfunc_begin0-Lfunc_begin0      ## >> Call Site 1 <<
	.uleb128 Ltmp0-Lfunc_begin0             ##   Call between Lfunc_begin0 and Ltmp0
	.byte	0                               ##     has no landing pad
	.byte	0                               ##   On action: cleanup
	.uleb128 Ltmp0-Lfunc_begin0             ## >> Call Site 2 <<
	.uleb128 Ltmp1-Ltmp0                    ##   Call between Ltmp0 and Ltmp1
	.uleb128 Ltmp4-Lfunc_begin0             ##     jumps to Ltmp4
	.byte	0                               ##   On action: cleanup
	.uleb128 Ltmp1-Lfunc_begin0             ## >> Call Site 3 <<
	.uleb128 Ltmp5-Ltmp1                    ##   Call between Ltmp1 and Ltmp5
	.byte	0                               ##     has no landing pad
	.byte	0                               ##   On action: cleanup
	.uleb128 Ltmp5-Lfunc_begin0             ## >> Call Site 4 <<
	.uleb128 Ltmp6-Ltmp5                    ##   Call between Ltmp5 and Ltmp6
	.uleb128 Ltmp7-Lfunc_begin0             ##     jumps to Ltmp7
	.byte	0                               ##   On action: cleanup
	.uleb128 Ltmp8-Lfunc_begin0             ## >> Call Site 5 <<
	.uleb128 Ltmp9-Ltmp8                    ##   Call between Ltmp8 and Ltmp9
	.uleb128 Ltmp10-Lfunc_begin0            ##     jumps to Ltmp10
	.byte	0                               ##   On action: cleanup
	.uleb128 Ltmp2-Lfunc_begin0             ## >> Call Site 6 <<
	.uleb128 Ltmp3-Ltmp2                    ##   Call between Ltmp2 and Ltmp3
	.uleb128 Ltmp4-Lfunc_begin0             ##     jumps to Ltmp4
	.byte	0                               ##   On action: cleanup
	.uleb128 Ltmp3-Lfunc_begin0             ## >> Call Site 7 <<
	.uleb128 Lfunc_end0-Ltmp3               ##   Call between Ltmp3 and Lfunc_end0
	.byte	0                               ##     has no landing pad
	.byte	0                               ##   On action: cleanup
Lcst_end0:
	.p2align	2
                                        ## -- End function
	.section	__TEXT,__text,regular,pure_instructions
	.private_extern	___clang_call_terminate ## -- Begin function __clang_call_terminate
	.globl	___clang_call_terminate
	.weak_def_can_be_hidden	___clang_call_terminate
	.p2align	4, 0x90
___clang_call_terminate:                ## @__clang_call_terminate
Lfunc_begin1:
	.cfi_startproc
## %bb.0:
	pushq	%rax
	.cfi_def_cfa_offset 16
	callq	___cxa_begin_catch
	callq	__ZSt9terminatev
Lfunc_end1:
	.cfi_endproc
                                        ## -- End function
	.globl	_main                           ## -- Begin function main
	.p2align	4, 0x90
_main:                                  ## @main
Lfunc_begin2:
	.loc	76 26 0 is_stmt 1               ## ContainerWithMostWater.cpp:26:0
	.cfi_startproc
	.cfi_personality 155, ___gxx_personality_v0
	.cfi_lsda 16, Lexception1
## %bb.0:
	pushq	%rbp
	.cfi_def_cfa_offset 16
	.cfi_offset %rbp, -16
	movq	%rsp, %rbp
	.cfi_def_cfa_register %rbp
Ltmp59:
	pushq	%rbx
	pushq	%rax
	.cfi_offset %rbx, -24
	.loc	76 27 2 prologue_end            ## ContainerWithMostWater.cpp:27:2
	xorl	%edi, %edi
	callq	__ZNSt3__18ios_base15sync_with_stdioEb
Ltmp60:
	.loc	76 28 2                         ## ContainerWithMostWater.cpp:28:2
	movq	__ZNSt3__13cinE@GOTPCREL(%rip), %rax
	movq	(%rax), %rcx
	movq	-24(%rcx), %rcx
Ltmp61:
	##DEBUG_VALUE: tie:__r <- undef
	##DEBUG_VALUE: tie:__tiestr <- 0
	##DEBUG_VALUE: tie:this <- undef
	.loc	2 731 12                        ## /Library/Developer/CommandLineTools/SDKs/MacOSX.sdk/usr/include/c++/v1/ios:731:12
	movq	$0, 136(%rax,%rcx)
Ltmp62:
	.loc	76 30 2                         ## ContainerWithMostWater.cpp:30:2
	callq	__Z5solvev
Ltmp63:
	.file	78 "/Library/Developer/CommandLineTools/SDKs/MacOSX.sdk/usr/include/c++/v1" "ostream"
	.loc	78 1006 14                      ## /Library/Developer/CommandLineTools/SDKs/MacOSX.sdk/usr/include/c++/v1/ostream:1006:14
	movq	__ZNSt3__14coutE@GOTPCREL(%rip), %rsi
Ltmp64:
	##DEBUG_VALUE: endl<char, std::__1::char_traits<char> >:__os <- $rsi
	##DEBUG_VALUE: operator<<:this <- $rsi
	movq	(%rsi), %rax
	addq	-24(%rax), %rsi
Ltmp65:
	##DEBUG_VALUE: widen:__c <- 10
	##DEBUG_VALUE: widen:this <- $rsi
	.loc	78 0 14 is_stmt 0               ## /Library/Developer/CommandLineTools/SDKs/MacOSX.sdk/usr/include/c++/v1/ostream:0:14
	leaq	-16(%rbp), %rbx
Ltmp66:
	.loc	2 778 41 is_stmt 1              ## /Library/Developer/CommandLineTools/SDKs/MacOSX.sdk/usr/include/c++/v1/ios:778:41
	movq	%rbx, %rdi
	callq	__ZNKSt3__18ios_base6getlocEv
Ltmp67:
Ltmp51:
	##DEBUG_VALUE: use_facet<std::__1::ctype<char> >:__l <- [DW_OP_constu 16, DW_OP_minus, DW_OP_stack_value] $rbp
	.loc	6 250 44                        ## /Library/Developer/CommandLineTools/SDKs/MacOSX.sdk/usr/include/c++/v1/__locale:250:44
	movq	__ZNSt3__15ctypeIcE2idE@GOTPCREL(%rip), %rsi
	movq	%rbx, %rdi
	callq	__ZNKSt3__16locale9use_facetERNS0_2idE
Ltmp68:
Ltmp52:
## %bb.1:
	##DEBUG_VALUE: widen:__c <- 10
	##DEBUG_VALUE: widen:this <- $rax
	##DEBUG_VALUE: widen:__c <- 10
	.loc	6 687 16                        ## /Library/Developer/CommandLineTools/SDKs/MacOSX.sdk/usr/include/c++/v1/__locale:687:16
	movq	(%rax), %rcx
Ltmp53:
	movq	%rax, %rdi
	movl	$10, %esi
	callq	*56(%rcx)
Ltmp69:
Ltmp54:
## %bb.2:
	##DEBUG_VALUE: widen:__c <- 10
	.loc	2 0 0 is_stmt 0                 ## /Library/Developer/CommandLineTools/SDKs/MacOSX.sdk/usr/include/c++/v1/ios:0:0
	movl	%eax, %ebx
	leaq	-16(%rbp), %rdi
	.loc	2 778 5 is_stmt 1               ## /Library/Developer/CommandLineTools/SDKs/MacOSX.sdk/usr/include/c++/v1/ios:778:5
	callq	__ZNSt3__16localeD1Ev
Ltmp70:
	.loc	78 1006 10                      ## /Library/Developer/CommandLineTools/SDKs/MacOSX.sdk/usr/include/c++/v1/ostream:1006:10
	movsbl	%bl, %esi
	movq	__ZNSt3__14coutE@GOTPCREL(%rip), %rbx
	movq	%rbx, %rdi
	callq	__ZNSt3__113basic_ostreamIcNS_11char_traitsIcEEE3putEc
Ltmp71:
	.loc	78 1007 10                      ## /Library/Developer/CommandLineTools/SDKs/MacOSX.sdk/usr/include/c++/v1/ostream:1007:10
	movq	%rbx, %rdi
	callq	__ZNSt3__113basic_ostreamIcNS_11char_traitsIcEEE5flushEv
Ltmp72:
	.loc	76 31 1                         ## ContainerWithMostWater.cpp:31:1
	xorl	%eax, %eax
	addq	$8, %rsp
	popq	%rbx
	popq	%rbp
	retq
Ltmp73:
LBB2_3:
	##DEBUG_VALUE: widen:__c <- 10
Ltmp55:
	.loc	76 0 1 is_stmt 0                ## ContainerWithMostWater.cpp:0:1
	movq	%rax, %rbx
Ltmp56:
	leaq	-16(%rbp), %rdi
Ltmp74:
	.loc	2 778 5 is_stmt 1               ## /Library/Developer/CommandLineTools/SDKs/MacOSX.sdk/usr/include/c++/v1/ios:778:5
	callq	__ZNSt3__16localeD1Ev
Ltmp75:
Ltmp57:
## %bb.4:
	##DEBUG_VALUE: widen:__c <- 10
	.loc	2 0 5 is_stmt 0                 ## /Library/Developer/CommandLineTools/SDKs/MacOSX.sdk/usr/include/c++/v1/ios:0:5
	movq	%rbx, %rdi
	callq	__Unwind_Resume
Ltmp76:
	ud2
Ltmp77:
LBB2_5:
	##DEBUG_VALUE: widen:__c <- 10
Ltmp58:
	.loc	2 778 5                         ## /Library/Developer/CommandLineTools/SDKs/MacOSX.sdk/usr/include/c++/v1/ios:778:5
	movq	%rax, %rdi
	callq	___clang_call_terminate
Ltmp78:
Lfunc_end2:
	.cfi_endproc
	.file	79 "/Library/Developer/CommandLineTools/SDKs/MacOSX.sdk/usr/include/c++/v1" "streambuf"
	.section	__TEXT,__gcc_except_tab
	.p2align	2
GCC_except_table2:
Lexception1:
	.byte	255                             ## @LPStart Encoding = omit
	.byte	155                             ## @TType Encoding = indirect pcrel sdata4
	.uleb128 Lttbase0-Lttbaseref0
Lttbaseref0:
	.byte	1                               ## Call site Encoding = uleb128
	.uleb128 Lcst_end1-Lcst_begin1
Lcst_begin1:
	.uleb128 Lfunc_begin2-Lfunc_begin2      ## >> Call Site 1 <<
	.uleb128 Ltmp51-Lfunc_begin2            ##   Call between Lfunc_begin2 and Ltmp51
	.byte	0                               ##     has no landing pad
	.byte	0                               ##   On action: cleanup
	.uleb128 Ltmp51-Lfunc_begin2            ## >> Call Site 2 <<
	.uleb128 Ltmp54-Ltmp51                  ##   Call between Ltmp51 and Ltmp54
	.uleb128 Ltmp55-Lfunc_begin2            ##     jumps to Ltmp55
	.byte	0                               ##   On action: cleanup
	.uleb128 Ltmp54-Lfunc_begin2            ## >> Call Site 3 <<
	.uleb128 Ltmp56-Ltmp54                  ##   Call between Ltmp54 and Ltmp56
	.byte	0                               ##     has no landing pad
	.byte	0                               ##   On action: cleanup
	.uleb128 Ltmp56-Lfunc_begin2            ## >> Call Site 4 <<
	.uleb128 Ltmp57-Ltmp56                  ##   Call between Ltmp56 and Ltmp57
	.uleb128 Ltmp58-Lfunc_begin2            ##     jumps to Ltmp58
	.byte	1                               ##   On action: 1
	.uleb128 Ltmp57-Lfunc_begin2            ## >> Call Site 5 <<
	.uleb128 Lfunc_end2-Ltmp57              ##   Call between Ltmp57 and Lfunc_end2
	.byte	0                               ##     has no landing pad
	.byte	0                               ##   On action: cleanup
Lcst_end1:
	.byte	1                               ## >> Action Record 1 <<
                                        ##   Catch TypeInfo 1
	.byte	0                               ##   No further actions
	.p2align	2
                                        ## >> Catch TypeInfos <<
	.long	0                               ## TypeInfo 1
Lttbase0:
	.p2align	2
                                        ## -- End function