	.section	__TEXT,__text,regular,pure_instructions
	.build_version macos, 11, 3	sdk_version 11, 3
	.intel_syntax noprefix
	.globl	_main                           ## -- Begin function main
	.p2align	4, 0x90
_main:                                  ## @main
	.cfi_startproc
## %bb.0:
	push	rbp
	.cfi_def_cfa_offset 16
	.cfi_offset rbp, -16
	mov	rbp, rsp
	.cfi_def_cfa_register rbp
	sub	rsp, 80
	mov	rdi, qword ptr [rip + __ZNSt3__13cinE@GOTPCREL]
	mov	dword ptr [rbp - 4], 0
	lea	rsi, [rbp - 8]
	call	__ZNSt3__113basic_istreamIcNS_11char_traitsIcEEErsERi
	mov	rdi, rax
	lea	rsi, [rbp - 12]
	call	__ZNSt3__113basic_istreamIcNS_11char_traitsIcEEErsERi
	mov	esi, dword ptr [rbp - 8]
	mov	edx, dword ptr [rbp - 12]
	lea	rdi, [rbp - 32]
	mov	qword ptr [rbp - 72], rax       ## 8-byte Spill
	call	__ZN5graphC1Eii
	lea	rdi, [rbp - 32]
	call	__ZN5graph10read_graphEv
	mov	dword ptr [rbp - 36], 0
	mov	dword ptr [rbp - 40], 0
LBB0_1:                                 ## =>This Loop Header: Depth=1
                                        ##     Child Loop BB0_3 Depth 2
	mov	eax, dword ptr [rbp - 40]
	cmp	eax, dword ptr [rbp - 8]
	jge	LBB0_10
## %bb.2:                               ##   in Loop: Header=BB0_1 Depth=1
	mov	dword ptr [rbp - 44], 0
LBB0_3:                                 ##   Parent Loop BB0_1 Depth=1
                                        ## =>  This Inner Loop Header: Depth=2
	mov	eax, dword ptr [rbp - 44]
	cmp	eax, dword ptr [rbp - 12]
	jge	LBB0_8
## %bb.4:                               ##   in Loop: Header=BB0_3 Depth=2
	mov	rdi, qword ptr [rbp - 24]
	movsxd	rsi, dword ptr [rbp - 40]
	call	__ZNSt3__16vectorINS0_IcNS_9allocatorIcEEEENS1_IS3_EEEixEm
	movsxd	rsi, dword ptr [rbp - 44]
	mov	rdi, rax
	call	__ZNSt3__16vectorIcNS_9allocatorIcEEEixEm
	movsx	ecx, byte ptr [rax]
	cmp	ecx, 46
	jne	LBB0_6
## %bb.5:                               ##   in Loop: Header=BB0_3 Depth=2
	mov	eax, dword ptr [rbp - 36]
	add	eax, 1
	mov	dword ptr [rbp - 36], eax
	mov	esi, dword ptr [rbp - 40]
	mov	edx, dword ptr [rbp - 44]
	lea	rdi, [rbp - 56]
	call	__ZN5indexC1Eii
	mov	rcx, qword ptr [rbp - 56]
	mov	qword ptr [rbp - 64], rcx
	mov	rsi, qword ptr [rbp - 64]
	lea	rdi, [rbp - 32]
	call	__ZN5graph3bfsE5index
LBB0_6:                                 ##   in Loop: Header=BB0_3 Depth=2
	jmp	LBB0_7
LBB0_7:                                 ##   in Loop: Header=BB0_3 Depth=2
	mov	eax, dword ptr [rbp - 44]
	add	eax, 1
	mov	dword ptr [rbp - 44], eax
	jmp	LBB0_3
LBB0_8:                                 ##   in Loop: Header=BB0_1 Depth=1
	jmp	LBB0_9
LBB0_9:                                 ##   in Loop: Header=BB0_1 Depth=1
	mov	eax, dword ptr [rbp - 40]
	add	eax, 1
	mov	dword ptr [rbp - 40], eax
	jmp	LBB0_1
LBB0_10:
	mov	rdi, qword ptr [rip + __ZNSt3__14coutE@GOTPCREL]
	mov	esi, dword ptr [rbp - 36]
	call	__ZNSt3__113basic_ostreamIcNS_11char_traitsIcEEElsEi
	mov	ecx, dword ptr [rbp - 4]
	mov	qword ptr [rbp - 80], rax       ## 8-byte Spill
	mov	eax, ecx
	add	rsp, 80
	pop	rbp
	ret
	.cfi_endproc
                                        ## -- End function
	.globl	__ZN5graphC1Eii                 ## -- Begin function _ZN5graphC1Eii
	.weak_def_can_be_hidden	__ZN5graphC1Eii
	.p2align	4, 0x90
__ZN5graphC1Eii:                        ## @_ZN5graphC1Eii
	.cfi_startproc
## %bb.0:
	push	rbp
	.cfi_def_cfa_offset 16
	.cfi_offset rbp, -16
	mov	rbp, rsp
	.cfi_def_cfa_register rbp
	sub	rsp, 16
	mov	qword ptr [rbp - 8], rdi
	mov	dword ptr [rbp - 12], esi
	mov	dword ptr [rbp - 16], edx
	mov	rdi, qword ptr [rbp - 8]
	mov	esi, dword ptr [rbp - 12]
	mov	edx, dword ptr [rbp - 16]
	call	__ZN5graphC2Eii
	add	rsp, 16
	pop	rbp
	ret
	.cfi_endproc
                                        ## -- End function
	.globl	__ZN5graph10read_graphEv        ## -- Begin function _ZN5graph10read_graphEv
	.weak_definition	__ZN5graph10read_graphEv
	.p2align	4, 0x90
__ZN5graph10read_graphEv:               ## @_ZN5graph10read_graphEv
	.cfi_startproc
## %bb.0:
	push	rbp
	.cfi_def_cfa_offset 16
	.cfi_offset rbp, -16
	mov	rbp, rsp
	.cfi_def_cfa_register rbp
	sub	rsp, 32
	mov	qword ptr [rbp - 8], rdi
	mov	rax, qword ptr [rbp - 8]
	mov	dword ptr [rbp - 12], 0
	mov	qword ptr [rbp - 24], rax       ## 8-byte Spill
LBB2_1:                                 ## =>This Loop Header: Depth=1
                                        ##     Child Loop BB2_3 Depth 2
	mov	eax, dword ptr [rbp - 12]
	mov	rcx, qword ptr [rbp - 24]       ## 8-byte Reload
	cmp	eax, dword ptr [rcx]
	jge	LBB2_8
## %bb.2:                               ##   in Loop: Header=BB2_1 Depth=1
	mov	dword ptr [rbp - 16], 0
LBB2_3:                                 ##   Parent Loop BB2_1 Depth=1
                                        ## =>  This Inner Loop Header: Depth=2
	mov	eax, dword ptr [rbp - 16]
	mov	rcx, qword ptr [rbp - 24]       ## 8-byte Reload
	cmp	eax, dword ptr [rcx + 4]
	jge	LBB2_6
## %bb.4:                               ##   in Loop: Header=BB2_3 Depth=2
	mov	rax, qword ptr [rbp - 24]       ## 8-byte Reload
	mov	rdi, qword ptr [rax + 8]
	movsxd	rsi, dword ptr [rbp - 12]
	call	__ZNSt3__16vectorINS0_IcNS_9allocatorIcEEEENS1_IS3_EEEixEm
	movsxd	rsi, dword ptr [rbp - 16]
	mov	rdi, rax
	call	__ZNSt3__16vectorIcNS_9allocatorIcEEEixEm
	mov	rdi, qword ptr [rip + __ZNSt3__13cinE@GOTPCREL]
	mov	rsi, rax
	call	__ZNSt3__1rsIcNS_11char_traitsIcEEEERNS_13basic_istreamIT_T0_EES7_RS4_
## %bb.5:                               ##   in Loop: Header=BB2_3 Depth=2
	mov	eax, dword ptr [rbp - 16]
	add	eax, 1
	mov	dword ptr [rbp - 16], eax
	jmp	LBB2_3
LBB2_6:                                 ##   in Loop: Header=BB2_1 Depth=1
	jmp	LBB2_7
LBB2_7:                                 ##   in Loop: Header=BB2_1 Depth=1
	mov	eax, dword ptr [rbp - 12]
	add	eax, 1
	mov	dword ptr [rbp - 12], eax
	jmp	LBB2_1
LBB2_8:
	add	rsp, 32
	pop	rbp
	ret
	.cfi_endproc
                                        ## -- End function
	.p2align	4, 0x90                         ## -- Begin function _ZNSt3__16vectorINS0_IcNS_9allocatorIcEEEENS1_IS3_EEEixEm
__ZNSt3__16vectorINS0_IcNS_9allocatorIcEEEENS1_IS3_EEEixEm: ## @_ZNSt3__16vectorINS0_IcNS_9allocatorIcEEEENS1_IS3_EEEixEm
	.cfi_startproc
## %bb.0:
	push	rbp
	.cfi_def_cfa_offset 16
	.cfi_offset rbp, -16
	mov	rbp, rsp
	.cfi_def_cfa_register rbp
	mov	qword ptr [rbp - 8], rdi
	mov	qword ptr [rbp - 16], rsi
	mov	rax, qword ptr [rbp - 8]
	mov	rax, qword ptr [rax]
	imul	rcx, qword ptr [rbp - 16], 24
	add	rax, rcx
	pop	rbp
	ret
	.cfi_endproc
                                        ## -- End function
	.p2align	4, 0x90                         ## -- Begin function _ZNSt3__16vectorIcNS_9allocatorIcEEEixEm
__ZNSt3__16vectorIcNS_9allocatorIcEEEixEm: ## @_ZNSt3__16vectorIcNS_9allocatorIcEEEixEm
	.cfi_startproc
## %bb.0:
	push	rbp
	.cfi_def_cfa_offset 16
	.cfi_offset rbp, -16
	mov	rbp, rsp
	.cfi_def_cfa_register rbp
	mov	qword ptr [rbp - 8], rdi
	mov	qword ptr [rbp - 16], rsi
	mov	rax, qword ptr [rbp - 8]
	mov	rax, qword ptr [rax]
	add	rax, qword ptr [rbp - 16]
	pop	rbp
	ret
	.cfi_endproc
                                        ## -- End function
	.globl	__ZN5indexC1Eii                 ## -- Begin function _ZN5indexC1Eii
	.weak_def_can_be_hidden	__ZN5indexC1Eii
	.p2align	4, 0x90
__ZN5indexC1Eii:                        ## @_ZN5indexC1Eii
	.cfi_startproc
## %bb.0:
	push	rbp
	.cfi_def_cfa_offset 16
	.cfi_offset rbp, -16
	mov	rbp, rsp
	.cfi_def_cfa_register rbp
	sub	rsp, 16
	mov	qword ptr [rbp - 8], rdi
	mov	dword ptr [rbp - 12], esi
	mov	dword ptr [rbp - 16], edx
	mov	rdi, qword ptr [rbp - 8]
	mov	esi, dword ptr [rbp - 12]
	mov	edx, dword ptr [rbp - 16]
	call	__ZN5indexC2Eii
	add	rsp, 16
	pop	rbp
	ret
	.cfi_endproc
                                        ## -- End function
	.globl	__ZN5graph3bfsE5index           ## -- Begin function _ZN5graph3bfsE5index
	.weak_definition	__ZN5graph3bfsE5index
	.p2align	4, 0x90
__ZN5graph3bfsE5index:                  ## @_ZN5graph3bfsE5index
Lfunc_begin0:
	.cfi_startproc
	.cfi_personality 155, ___gxx_personality_v0
	.cfi_lsda 16, Lexception0
## %bb.0:
	push	rbp
	.cfi_def_cfa_offset 16
	.cfi_offset rbp, -16
	mov	rbp, rsp
	.cfi_def_cfa_register rbp
	sub	rsp, 400
	mov	qword ptr [rbp - 8], rsi
	mov	qword ptr [rbp - 16], rdi
	mov	rax, qword ptr [rbp - 16]
	lea	rdi, [rbp - 64]
	mov	qword ptr [rbp - 240], rax      ## 8-byte Spill
	call	__ZNSt3__15dequeINS_4pairIiiEENS_9allocatorIS2_EEEC1Ev
	lea	rdi, [rbp - 88]
	call	__ZNSt3__13setINS_4pairIiiEENS_4lessIS2_EENS_9allocatorIS2_EEEC1Ev
Ltmp0:
	lea	rdi, [rbp - 8]
	call	__ZN5index8get_pairEv
Ltmp1:
	mov	qword ptr [rbp - 248], rax      ## 8-byte Spill
	jmp	LBB6_1
LBB6_1:
	mov	rax, qword ptr [rbp - 248]      ## 8-byte Reload
	mov	qword ptr [rbp - 96], rax
Ltmp2:
	lea	rdi, [rbp - 64]
	lea	rsi, [rbp - 96]
	call	__ZNSt3__15dequeINS_4pairIiiEENS_9allocatorIS2_EEE9push_backEOS2_
Ltmp3:
	jmp	LBB6_2
LBB6_2:
Ltmp4:
	lea	rdi, [rbp - 120]
	xor	eax, eax
	mov	esi, eax
	mov	edx, eax
	call	__ZN5indexC1Eii
Ltmp5:
	jmp	LBB6_3
LBB6_3:
	jmp	LBB6_4
LBB6_4:                                 ## =>This Inner Loop Header: Depth=1
	lea	rdi, [rbp - 64]
	call	__ZNKSt3__15dequeINS_4pairIiiEENS_9allocatorIS2_EEE5emptyEv
	xor	al, -1
	test	al, 1
	jne	LBB6_5
	jmp	LBB6_39
LBB6_5:                                 ##   in Loop: Header=BB6_4 Depth=1
	lea	rdi, [rbp - 64]
	call	__ZNSt3__15dequeINS_4pairIiiEENS_9allocatorIS2_EEE5frontEv
Ltmp6:
	lea	rdi, [rbp - 88]
	mov	rsi, rax
	call	__ZNSt3__13setINS_4pairIiiEENS_4lessIS2_EENS_9allocatorIS2_EEE4findERKS2_
Ltmp7:
	mov	qword ptr [rbp - 256], rax      ## 8-byte Spill
	jmp	LBB6_6
LBB6_6:                                 ##   in Loop: Header=BB6_4 Depth=1
	mov	rax, qword ptr [rbp - 256]      ## 8-byte Reload
	mov	qword ptr [rbp - 128], rax
	lea	rdi, [rbp - 88]
	call	__ZNSt3__13setINS_4pairIiiEENS_4lessIS2_EENS_9allocatorIS2_EEE3endEv
	mov	qword ptr [rbp - 136], rax
Ltmp8:
	lea	rdi, [rbp - 128]
	lea	rsi, [rbp - 136]
	call	__ZNSt3__1eqERKNS_21__tree_const_iteratorINS_4pairIiiEEPNS_11__tree_nodeIS2_PvEElEES9_
Ltmp9:
	mov	byte ptr [rbp - 257], al        ## 1-byte Spill
	jmp	LBB6_7
LBB6_7:                                 ##   in Loop: Header=BB6_4 Depth=1
	mov	al, byte ptr [rbp - 257]        ## 1-byte Reload
	test	al, 1
	jne	LBB6_8
	jmp	LBB6_37
LBB6_8:                                 ##   in Loop: Header=BB6_4 Depth=1
	lea	rax, [rbp - 64]
	mov	rdi, rax
	mov	qword ptr [rbp - 272], rax      ## 8-byte Spill
	call	__ZNSt3__15dequeINS_4pairIiiEENS_9allocatorIS2_EEE5frontEv
	mov	ecx, dword ptr [rax]
	mov	dword ptr [rbp - 120], ecx
	mov	rdi, qword ptr [rbp - 272]      ## 8-byte Reload
	call	__ZNSt3__15dequeINS_4pairIiiEENS_9allocatorIS2_EEE5frontEv
	mov	ecx, dword ptr [rax + 4]
	mov	dword ptr [rbp - 116], ecx
	mov	rax, qword ptr [rbp - 120]
	mov	qword ptr [rbp - 144], rax
	mov	rsi, qword ptr [rbp - 144]
Ltmp10:
	mov	rdi, qword ptr [rbp - 240]      ## 8-byte Reload
	call	__ZN5graph4markE5index
Ltmp11:
	jmp	LBB6_9
LBB6_9:                                 ##   in Loop: Header=BB6_4 Depth=1
Ltmp12:
	lea	rdi, [rbp - 120]
	call	__ZN5index8get_pairEv
Ltmp13:
	mov	qword ptr [rbp - 280], rax      ## 8-byte Spill
	jmp	LBB6_10
LBB6_10:                                ##   in Loop: Header=BB6_4 Depth=1
	mov	rax, qword ptr [rbp - 280]      ## 8-byte Reload
	mov	qword ptr [rbp - 152], rax
Ltmp14:
	lea	rdi, [rbp - 88]
	lea	rsi, [rbp - 152]
	call	__ZNSt3__13setINS_4pairIiiEENS_4lessIS2_EENS_9allocatorIS2_EEE6insertEOS2_
Ltmp15:
	mov	byte ptr [rbp - 281], dl        ## 1-byte Spill
	mov	qword ptr [rbp - 296], rax      ## 8-byte Spill
	jmp	LBB6_11
LBB6_11:                                ##   in Loop: Header=BB6_4 Depth=1
	mov	rax, qword ptr [rbp - 296]      ## 8-byte Reload
	mov	qword ptr [rbp - 168], rax
	mov	cl, byte ptr [rbp - 281]        ## 1-byte Reload
	mov	byte ptr [rbp - 160], cl
Ltmp16:
	lea	rdi, [rbp - 120]
	call	__ZN5index2upEv
Ltmp17:
	mov	qword ptr [rbp - 304], rax      ## 8-byte Spill
	jmp	LBB6_12
LBB6_12:                                ##   in Loop: Header=BB6_4 Depth=1
	mov	rax, qword ptr [rbp - 304]      ## 8-byte Reload
	mov	qword ptr [rbp - 176], rax
	mov	rsi, qword ptr [rbp - 176]
Ltmp18:
	mov	rdi, qword ptr [rbp - 240]      ## 8-byte Reload
	call	__ZN5graph8validateENSt3__14pairIiiEE
Ltmp19:
	mov	byte ptr [rbp - 305], al        ## 1-byte Spill
	jmp	LBB6_13
LBB6_13:                                ##   in Loop: Header=BB6_4 Depth=1
	mov	al, byte ptr [rbp - 305]        ## 1-byte Reload
	test	al, 1
	jne	LBB6_14
	jmp	LBB6_18
LBB6_14:                                ##   in Loop: Header=BB6_4 Depth=1
Ltmp20:
	lea	rdi, [rbp - 120]
	call	__ZN5index2upEv
Ltmp21:
	mov	qword ptr [rbp - 320], rax      ## 8-byte Spill
	jmp	LBB6_15
LBB6_15:                                ##   in Loop: Header=BB6_4 Depth=1
	mov	rax, qword ptr [rbp - 320]      ## 8-byte Reload
	mov	qword ptr [rbp - 184], rax
Ltmp22:
	lea	rdi, [rbp - 64]
	lea	rsi, [rbp - 184]
	call	__ZNSt3__15dequeINS_4pairIiiEENS_9allocatorIS2_EEE9push_backEOS2_
Ltmp23:
	jmp	LBB6_16
LBB6_16:                                ##   in Loop: Header=BB6_4 Depth=1
	jmp	LBB6_18
LBB6_17:
Ltmp50:
                                        ## kill: def $edx killed $edx killed $rdx
	mov	qword ptr [rbp - 104], rax
	mov	dword ptr [rbp - 108], edx
	lea	rdi, [rbp - 88]
	call	__ZNSt3__13setINS_4pairIiiEENS_4lessIS2_EENS_9allocatorIS2_EEED1Ev
	lea	rdi, [rbp - 64]
	call	__ZNSt3__15dequeINS_4pairIiiEENS_9allocatorIS2_EEED1Ev
	jmp	LBB6_40
LBB6_18:                                ##   in Loop: Header=BB6_4 Depth=1
Ltmp24:
	lea	rdi, [rbp - 120]
	call	__ZN5index4downEv
Ltmp25:
	mov	qword ptr [rbp - 328], rax      ## 8-byte Spill
	jmp	LBB6_19
LBB6_19:                                ##   in Loop: Header=BB6_4 Depth=1
	mov	rax, qword ptr [rbp - 328]      ## 8-byte Reload
	mov	qword ptr [rbp - 192], rax
	mov	rsi, qword ptr [rbp - 192]
Ltmp26:
	mov	rdi, qword ptr [rbp - 240]      ## 8-byte Reload
	call	__ZN5graph8validateENSt3__14pairIiiEE
Ltmp27:
	mov	byte ptr [rbp - 329], al        ## 1-byte Spill
	jmp	LBB6_20
LBB6_20:                                ##   in Loop: Header=BB6_4 Depth=1
	mov	al, byte ptr [rbp - 329]        ## 1-byte Reload
	test	al, 1
	jne	LBB6_21
	jmp	LBB6_24
LBB6_21:                                ##   in Loop: Header=BB6_4 Depth=1
Ltmp28:
	lea	rdi, [rbp - 120]
	call	__ZN5index4downEv
Ltmp29:
	mov	qword ptr [rbp - 344], rax      ## 8-byte Spill
	jmp	LBB6_22
LBB6_22:                                ##   in Loop: Header=BB6_4 Depth=1
	mov	rax, qword ptr [rbp - 344]      ## 8-byte Reload
	mov	qword ptr [rbp - 200], rax
Ltmp30:
	lea	rdi, [rbp - 64]
	lea	rsi, [rbp - 200]
	call	__ZNSt3__15dequeINS_4pairIiiEENS_9allocatorIS2_EEE9push_backEOS2_
Ltmp31:
	jmp	LBB6_23
LBB6_23:                                ##   in Loop: Header=BB6_4 Depth=1
	jmp	LBB6_24
LBB6_24:                                ##   in Loop: Header=BB6_4 Depth=1
Ltmp32:
	lea	rdi, [rbp - 120]
	call	__ZN5index4leftEv
Ltmp33:
	mov	qword ptr [rbp - 352], rax      ## 8-byte Spill
	jmp	LBB6_25
LBB6_25:                                ##   in Loop: Header=BB6_4 Depth=1
	mov	rax, qword ptr [rbp - 352]      ## 8-byte Reload
	mov	qword ptr [rbp - 208], rax
	mov	rsi, qword ptr [rbp - 208]
Ltmp34:
	mov	rdi, qword ptr [rbp - 240]      ## 8-byte Reload
	call	__ZN5graph8validateENSt3__14pairIiiEE
Ltmp35:
	mov	byte ptr [rbp - 353], al        ## 1-byte Spill
	jmp	LBB6_26
LBB6_26:                                ##   in Loop: Header=BB6_4 Depth=1
	mov	al, byte ptr [rbp - 353]        ## 1-byte Reload
	test	al, 1
	jne	LBB6_27
	jmp	LBB6_30
LBB6_27:                                ##   in Loop: Header=BB6_4 Depth=1
Ltmp36:
	lea	rdi, [rbp - 120]
	call	__ZN5index4leftEv
Ltmp37:
	mov	qword ptr [rbp - 368], rax      ## 8-byte Spill
	jmp	LBB6_28
LBB6_28:                                ##   in Loop: Header=BB6_4 Depth=1
	mov	rax, qword ptr [rbp - 368]      ## 8-byte Reload
	mov	qword ptr [rbp - 216], rax
Ltmp38:
	lea	rdi, [rbp - 64]
	lea	rsi, [rbp - 216]
	call	__ZNSt3__15dequeINS_4pairIiiEENS_9allocatorIS2_EEE9push_backEOS2_
Ltmp39:
	jmp	LBB6_29
LBB6_29:                                ##   in Loop: Header=BB6_4 Depth=1
	jmp	LBB6_30
LBB6_30:                                ##   in Loop: Header=BB6_4 Depth=1
Ltmp40:
	lea	rdi, [rbp - 120]
	call	__ZN5index5rightEv
Ltmp41:
	mov	qword ptr [rbp - 376], rax      ## 8-byte Spill
	jmp	LBB6_31
LBB6_31:                                ##   in Loop: Header=BB6_4 Depth=1
	mov	rax, qword ptr [rbp - 376]      ## 8-byte Reload
	mov	qword ptr [rbp - 224], rax
	mov	rsi, qword ptr [rbp - 224]
Ltmp42:
	mov	rdi, qword ptr [rbp - 240]      ## 8-byte Reload
	call	__ZN5graph8validateENSt3__14pairIiiEE
Ltmp43:
	mov	byte ptr [rbp - 377], al        ## 1-byte Spill
	jmp	LBB6_32
LBB6_32:                                ##   in Loop: Header=BB6_4 Depth=1
	mov	al, byte ptr [rbp - 377]        ## 1-byte Reload
	test	al, 1
	jne	LBB6_33
	jmp	LBB6_36
LBB6_33:                                ##   in Loop: Header=BB6_4 Depth=1
Ltmp44:
	lea	rdi, [rbp - 120]
	call	__ZN5index5rightEv
Ltmp45:
	mov	qword ptr [rbp - 392], rax      ## 8-byte Spill
	jmp	LBB6_34
LBB6_34:                                ##   in Loop: Header=BB6_4 Depth=1
	mov	rax, qword ptr [rbp - 392]      ## 8-byte Reload
	mov	qword ptr [rbp - 232], rax
Ltmp46:
	lea	rdi, [rbp - 64]
	lea	rsi, [rbp - 232]
	call	__ZNSt3__15dequeINS_4pairIiiEENS_9allocatorIS2_EEE9push_backEOS2_
Ltmp47:
	jmp	LBB6_35
LBB6_35:                                ##   in Loop: Header=BB6_4 Depth=1
	jmp	LBB6_36
LBB6_36:                                ##   in Loop: Header=BB6_4 Depth=1
	jmp	LBB6_37
LBB6_37:                                ##   in Loop: Header=BB6_4 Depth=1
Ltmp48:
	lea	rdi, [rbp - 64]
	call	__ZNSt3__15dequeINS_4pairIiiEENS_9allocatorIS2_EEE9pop_frontEv
Ltmp49:
	jmp	LBB6_38
LBB6_38:                                ##   in Loop: Header=BB6_4 Depth=1
	jmp	LBB6_4
LBB6_39:
	lea	rdi, [rbp - 88]
	call	__ZNSt3__13setINS_4pairIiiEENS_4lessIS2_EENS_9allocatorIS2_EEED1Ev
	lea	rdi, [rbp - 64]
	call	__ZNSt3__15dequeINS_4pairIiiEENS_9allocatorIS2_EEED1Ev
	add	rsp, 400
	pop	rbp
	ret
LBB6_40:
	mov	rdi, qword ptr [rbp - 104]
	call	__Unwind_Resume
	ud2
Lfunc_end0:
	.cfi_endproc
	.section	__TEXT,__gcc_except_tab
	.p2align	2
GCC_except_table6:
Lexception0:
	.byte	255                             ## @LPStart Encoding = omit
	.byte	255                             ## @TType Encoding = omit
	.byte	1                               ## Call site Encoding = uleb128
	.uleb128 Lcst_end0-Lcst_begin0
Lcst_begin0:
	.uleb128 Ltmp0-Lfunc_begin0             ## >> Call Site 1 <<
	.uleb128 Ltmp49-Ltmp0                   ##   Call between Ltmp0 and Ltmp49
	.uleb128 Ltmp50-Lfunc_begin0            ##     jumps to Ltmp50
	.byte	0                               ##   On action: cleanup
	.uleb128 Ltmp49-Lfunc_begin0            ## >> Call Site 2 <<
	.uleb128 Lfunc_end0-Ltmp49              ##   Call between Ltmp49 and Lfunc_end0
	.byte	0                               ##     has no landing pad
	.byte	0                               ##   On action: cleanup
Lcst_end0:
	.p2align	2
                                        ## -- End function
	.section	__TEXT,__text,regular,pure_instructions
	.globl	__ZN5graphC2Eii                 ## -- Begin function _ZN5graphC2Eii
	.weak_def_can_be_hidden	__ZN5graphC2Eii
	.p2align	4, 0x90
__ZN5graphC2Eii:                        ## @_ZN5graphC2Eii
Lfunc_begin1:
	.cfi_startproc
	.cfi_personality 155, ___gxx_personality_v0
	.cfi_lsda 16, Lexception1
## %bb.0:
	push	rbp
	.cfi_def_cfa_offset 16
	.cfi_offset rbp, -16
	mov	rbp, rsp
	.cfi_def_cfa_register rbp
	sub	rsp, 96
	mov	qword ptr [rbp - 8], rdi
	mov	dword ptr [rbp - 12], esi
	mov	dword ptr [rbp - 16], edx
	mov	rax, qword ptr [rbp - 8]
	mov	ecx, dword ptr [rbp - 12]
	mov	dword ptr [rax], ecx
	mov	ecx, dword ptr [rbp - 16]
	mov	dword ptr [rax + 4], ecx
	mov	edi, 24
	mov	qword ptr [rbp - 72], rax       ## 8-byte Spill
	call	__Znwm
	mov	rdi, rax
	mov	byte ptr [rbp - 61], 1
	mov	r8, qword ptr [rbp - 72]        ## 8-byte Reload
	movsxd	rsi, dword ptr [r8]
	movsxd	r9, dword ptr [r8 + 4]
	mov	byte ptr [rbp - 41], 97
Ltmp51:
	lea	r10, [rbp - 40]
	lea	rdx, [rbp - 41]
	mov	qword ptr [rbp - 80], rdi       ## 8-byte Spill
	mov	rdi, r10
	mov	qword ptr [rbp - 88], rsi       ## 8-byte Spill
	mov	rsi, r9
	mov	qword ptr [rbp - 96], rax       ## 8-byte Spill
	call	__ZNSt3__16vectorIcNS_9allocatorIcEEEC1EmRKc
Ltmp52:
	jmp	LBB7_1
LBB7_1:
Ltmp54:
	lea	rdx, [rbp - 40]
	mov	rdi, qword ptr [rbp - 96]       ## 8-byte Reload
	mov	rsi, qword ptr [rbp - 88]       ## 8-byte Reload
	call	__ZNSt3__16vectorINS0_IcNS_9allocatorIcEEEENS1_IS3_EEEC1EmRKS3_
Ltmp55:
	jmp	LBB7_2
LBB7_2:
	mov	byte ptr [rbp - 61], 0
	mov	rax, qword ptr [rbp - 72]       ## 8-byte Reload
	mov	rcx, qword ptr [rbp - 96]       ## 8-byte Reload
	mov	qword ptr [rax + 8], rcx
	lea	rdi, [rbp - 40]
	call	__ZNSt3__16vectorIcNS_9allocatorIcEEED1Ev
	add	rsp, 96
	pop	rbp
	ret
LBB7_3:
Ltmp53:
                                        ## kill: def $edx killed $edx killed $rdx
	mov	qword ptr [rbp - 56], rax
	mov	dword ptr [rbp - 60], edx
	jmp	LBB7_5
LBB7_4:
Ltmp56:
                                        ## kill: def $edx killed $edx killed $rdx
	mov	qword ptr [rbp - 56], rax
	mov	dword ptr [rbp - 60], edx
	lea	rdi, [rbp - 40]
	call	__ZNSt3__16vectorIcNS_9allocatorIcEEED1Ev
LBB7_5:
	test	byte ptr [rbp - 61], 1
	jne	LBB7_6
	jmp	LBB7_7
LBB7_6:
	mov	rdi, qword ptr [rbp - 80]       ## 8-byte Reload
	call	__ZdlPv
LBB7_7:
	jmp	LBB7_8
LBB7_8:
	mov	rdi, qword ptr [rbp - 56]
	call	__Unwind_Resume
	ud2
Lfunc_end1:
	.cfi_endproc
	.section	__TEXT,__gcc_except_tab
	.p2align	2
GCC_except_table7:
Lexception1:
	.byte	255                             ## @LPStart Encoding = omit
	.byte	255                             ## @TType Encoding = omit
	.byte	1                               ## Call site Encoding = uleb128
	.uleb128 Lcst_end1-Lcst_begin1
Lcst_begin1:
	.uleb128 Lfunc_begin1-Lfunc_begin1      ## >> Call Site 1 <<
	.uleb128 Ltmp51-Lfunc_begin1            ##   Call between Lfunc_begin1 and Ltmp51
	.byte	0                               ##     has no landing pad
	.byte	0                               ##   On action: cleanup
	.uleb128 Ltmp51-Lfunc_begin1            ## >> Call Site 2 <<
	.uleb128 Ltmp52-Ltmp51                  ##   Call between Ltmp51 and Ltmp52
	.uleb128 Ltmp53-Lfunc_begin1            ##     jumps to Ltmp53
	.byte	0                               ##   On action: cleanup
	.uleb128 Ltmp54-Lfunc_begin1            ## >> Call Site 3 <<
	.uleb128 Ltmp55-Ltmp54                  ##   Call between Ltmp54 and Ltmp55
	.uleb128 Ltmp56-Lfunc_begin1            ##     jumps to Ltmp56
	.byte	0                               ##   On action: cleanup
	.uleb128 Ltmp55-Lfunc_begin1            ## >> Call Site 4 <<
	.uleb128 Lfunc_end1-Ltmp55              ##   Call between Ltmp55 and Lfunc_end1
	.byte	0                               ##     has no landing pad
	.byte	0                               ##   On action: cleanup
Lcst_end1:
	.p2align	2
                                        ## -- End function
	.section	__TEXT,__text,regular,pure_instructions
	.globl	__ZNSt3__16vectorIcNS_9allocatorIcEEEC1EmRKc ## -- Begin function _ZNSt3__16vectorIcNS_9allocatorIcEEEC1EmRKc
	.weak_def_can_be_hidden	__ZNSt3__16vectorIcNS_9allocatorIcEEEC1EmRKc
	.p2align	4, 0x90
__ZNSt3__16vectorIcNS_9allocatorIcEEEC1EmRKc: ## @_ZNSt3__16vectorIcNS_9allocatorIcEEEC1EmRKc
	.cfi_startproc
## %bb.0:
	push	rbp
	.cfi_def_cfa_offset 16
	.cfi_offset rbp, -16
	mov	rbp, rsp
	.cfi_def_cfa_register rbp
	sub	rsp, 32
	mov	qword ptr [rbp - 8], rdi
	mov	qword ptr [rbp - 16], rsi
	mov	qword ptr [rbp - 24], rdx
	mov	rdi, qword ptr [rbp - 8]
	mov	rsi, qword ptr [rbp - 16]
	mov	rdx, qword ptr [rbp - 24]
	call	__ZNSt3__16vectorIcNS_9allocatorIcEEEC2EmRKc
	add	rsp, 32
	pop	rbp
	ret
	.cfi_endproc
                                        ## -- End function
	.globl	__ZNSt3__16vectorINS0_IcNS_9allocatorIcEEEENS1_IS3_EEEC1EmRKS3_ ## -- Begin function _ZNSt3__16vectorINS0_IcNS_9allocatorIcEEEENS1_IS3_EEEC1EmRKS3_
	.weak_def_can_be_hidden	__ZNSt3__16vectorINS0_IcNS_9allocatorIcEEEENS1_IS3_EEEC1EmRKS3_
	.p2align	4, 0x90
__ZNSt3__16vectorINS0_IcNS_9allocatorIcEEEENS1_IS3_EEEC1EmRKS3_: ## @_ZNSt3__16vectorINS0_IcNS_9allocatorIcEEEENS1_IS3_EEEC1EmRKS3_
	.cfi_startproc
## %bb.0:
	push	rbp
	.cfi_def_cfa_offset 16
	.cfi_offset rbp, -16
	mov	rbp, rsp
	.cfi_def_cfa_register rbp
	sub	rsp, 32
	mov	qword ptr [rbp - 8], rdi
	mov	qword ptr [rbp - 16], rsi
	mov	qword ptr [rbp - 24], rdx
	mov	rdi, qword ptr [rbp - 8]
	mov	rsi, qword ptr [rbp - 16]
	mov	rdx, qword ptr [rbp - 24]
	call	__ZNSt3__16vectorINS0_IcNS_9allocatorIcEEEENS1_IS3_EEEC2EmRKS3_
	add	rsp, 32
	pop	rbp
	ret
	.cfi_endproc
                                        ## -- End function
	.p2align	4, 0x90                         ## -- Begin function _ZNSt3__16vectorIcNS_9allocatorIcEEED1Ev
__ZNSt3__16vectorIcNS_9allocatorIcEEED1Ev: ## @_ZNSt3__16vectorIcNS_9allocatorIcEEED1Ev
	.cfi_startproc
## %bb.0:
	push	rbp
	.cfi_def_cfa_offset 16
	.cfi_offset rbp, -16
	mov	rbp, rsp
	.cfi_def_cfa_register rbp
	sub	rsp, 16
	mov	qword ptr [rbp - 8], rdi
	mov	rdi, qword ptr [rbp - 8]
	call	__ZNSt3__16vectorIcNS_9allocatorIcEEED2Ev
	add	rsp, 16
	pop	rbp
	ret
	.cfi_endproc
                                        ## -- End function
	.globl	__ZNSt3__16vectorIcNS_9allocatorIcEEEC2EmRKc ## -- Begin function _ZNSt3__16vectorIcNS_9allocatorIcEEEC2EmRKc
	.weak_def_can_be_hidden	__ZNSt3__16vectorIcNS_9allocatorIcEEEC2EmRKc
	.p2align	4, 0x90
__ZNSt3__16vectorIcNS_9allocatorIcEEEC2EmRKc: ## @_ZNSt3__16vectorIcNS_9allocatorIcEEEC2EmRKc
Lfunc_begin2:
	.cfi_startproc
	.cfi_personality 155, ___gxx_personality_v0
	.cfi_lsda 16, Lexception2
## %bb.0:
	push	rbp
	.cfi_def_cfa_offset 16
	.cfi_offset rbp, -16
	mov	rbp, rsp
	.cfi_def_cfa_register rbp
	sub	rsp, 48
	mov	qword ptr [rbp - 8], rdi
	mov	qword ptr [rbp - 16], rsi
	mov	qword ptr [rbp - 24], rdx
	mov	rax, qword ptr [rbp - 8]
	mov	rcx, rax
	mov	rdi, rcx
	mov	qword ptr [rbp - 48], rax       ## 8-byte Spill
	call	__ZNSt3__113__vector_baseIcNS_9allocatorIcEEEC2Ev
	cmp	qword ptr [rbp - 16], 0
	jbe	LBB11_5
## %bb.1:
	mov	rsi, qword ptr [rbp - 16]
Ltmp57:
	mov	rdi, qword ptr [rbp - 48]       ## 8-byte Reload
	call	__ZNSt3__16vectorIcNS_9allocatorIcEEE11__vallocateEm
Ltmp58:
	jmp	LBB11_2
LBB11_2:
	mov	rsi, qword ptr [rbp - 16]
	mov	rdx, qword ptr [rbp - 24]
Ltmp59:
	mov	rdi, qword ptr [rbp - 48]       ## 8-byte Reload
	call	__ZNSt3__16vectorIcNS_9allocatorIcEEE18__construct_at_endEmRKc
Ltmp60:
	jmp	LBB11_3
LBB11_3:
	jmp	LBB11_5
LBB11_4:
Ltmp61:
                                        ## kill: def $edx killed $edx killed $rdx
	mov	qword ptr [rbp - 32], rax
	mov	dword ptr [rbp - 36], edx
	mov	rax, qword ptr [rbp - 48]       ## 8-byte Reload
	mov	rdi, rax
	call	__ZNSt3__113__vector_baseIcNS_9allocatorIcEEED2Ev
	jmp	LBB11_6
LBB11_5:
	add	rsp, 48
	pop	rbp
	ret
LBB11_6:
	mov	rdi, qword ptr [rbp - 32]
	call	__Unwind_Resume
	ud2
Lfunc_end2:
	.cfi_endproc
	.section	__TEXT,__gcc_except_tab
	.p2align	2
GCC_except_table11:
Lexception2:
	.byte	255                             ## @LPStart Encoding = omit
	.byte	255                             ## @TType Encoding = omit
	.byte	1                               ## Call site Encoding = uleb128
	.uleb128 Lcst_end2-Lcst_begin2
Lcst_begin2:
	.uleb128 Ltmp57-Lfunc_begin2            ## >> Call Site 1 <<
	.uleb128 Ltmp60-Ltmp57                  ##   Call between Ltmp57 and Ltmp60
	.uleb128 Ltmp61-Lfunc_begin2            ##     jumps to Ltmp61
	.byte	0                               ##   On action: cleanup
	.uleb128 Ltmp60-Lfunc_begin2            ## >> Call Site 2 <<
	.uleb128 Lfunc_end2-Ltmp60              ##   Call between Ltmp60 and Lfunc_end2
	.byte	0                               ##     has no landing pad
	.byte	0                               ##   On action: cleanup
Lcst_end2:
	.p2align	2
                                        ## -- End function
	.section	__TEXT,__text,regular,pure_instructions
	.p2align	4, 0x90                         ## -- Begin function _ZNSt3__113__vector_baseIcNS_9allocatorIcEEEC2Ev
__ZNSt3__113__vector_baseIcNS_9allocatorIcEEEC2Ev: ## @_ZNSt3__113__vector_baseIcNS_9allocatorIcEEEC2Ev
Lfunc_begin3:
	.cfi_startproc
	.cfi_personality 155, ___gxx_personality_v0
	.cfi_lsda 16, Lexception3
## %bb.0:
	push	rbp
	.cfi_def_cfa_offset 16
	.cfi_offset rbp, -16
	mov	rbp, rsp
	.cfi_def_cfa_register rbp
	sub	rsp, 48
	mov	qword ptr [rbp - 8], rdi
	mov	rax, qword ptr [rbp - 8]
Ltmp62:
	mov	rdi, rax
	mov	qword ptr [rbp - 32], rax       ## 8-byte Spill
	call	__ZNSt3__120__vector_base_commonILb1EEC2Ev
Ltmp63:
	jmp	LBB12_1
LBB12_1:
	mov	rax, qword ptr [rbp - 32]       ## 8-byte Reload
	mov	qword ptr [rax], 0
	mov	qword ptr [rax + 8], 0
	add	rax, 16
	mov	qword ptr [rbp - 16], 0
Ltmp64:
	lea	rsi, [rbp - 16]
	lea	rdx, [rbp - 24]
	mov	rdi, rax
	call	__ZNSt3__117__compressed_pairIPcNS_9allocatorIcEEEC1IDnNS_18__default_init_tagEEEOT_OT0_
Ltmp65:
	jmp	LBB12_2
LBB12_2:
	add	rsp, 48
	pop	rbp
	ret
LBB12_3:
Ltmp66:
	mov	rdi, rax
	mov	qword ptr [rbp - 40], rdx       ## 8-byte Spill
	call	___clang_call_terminate
Lfunc_end3:
	.cfi_endproc
	.section	__TEXT,__gcc_except_tab
	.p2align	2
GCC_except_table12:
Lexception3:
	.byte	255                             ## @LPStart Encoding = omit
	.byte	155                             ## @TType Encoding = indirect pcrel sdata4
	.uleb128 Lttbase0-Lttbaseref0
Lttbaseref0:
	.byte	1                               ## Call site Encoding = uleb128
	.uleb128 Lcst_end3-Lcst_begin3
Lcst_begin3:
	.uleb128 Ltmp62-Lfunc_begin3            ## >> Call Site 1 <<
	.uleb128 Ltmp65-Ltmp62                  ##   Call between Ltmp62 and Ltmp65
	.uleb128 Ltmp66-Lfunc_begin3            ##     jumps to Ltmp66
	.byte	1                               ##   On action: 1
Lcst_end3:
	.byte	1                               ## >> Action Record 1 <<
                                        ##   Catch TypeInfo 1
	.byte	0                               ##   No further actions
	.p2align	2
                                        ## >> Catch TypeInfos <<
	.long	0                               ## TypeInfo 1
Lttbase0:
	.p2align	2
                                        ## -- End function
	.section	__TEXT,__text,regular,pure_instructions
	.globl	__ZNSt3__16vectorIcNS_9allocatorIcEEE11__vallocateEm ## -- Begin function _ZNSt3__16vectorIcNS_9allocatorIcEEE11__vallocateEm
	.weak_definition	__ZNSt3__16vectorIcNS_9allocatorIcEEE11__vallocateEm
	.p2align	4, 0x90
__ZNSt3__16vectorIcNS_9allocatorIcEEE11__vallocateEm: ## @_ZNSt3__16vectorIcNS_9allocatorIcEEE11__vallocateEm
	.cfi_startproc
## %bb.0:
	push	rbp
	.cfi_def_cfa_offset 16
	.cfi_offset rbp, -16
	mov	rbp, rsp
	.cfi_def_cfa_register rbp
	sub	rsp, 48
	mov	qword ptr [rbp - 8], rdi
	mov	qword ptr [rbp - 16], rsi
	mov	rax, qword ptr [rbp - 8]
	mov	rcx, qword ptr [rbp - 16]
	mov	rdi, rax
	mov	qword ptr [rbp - 24], rax       ## 8-byte Spill
	mov	qword ptr [rbp - 32], rcx       ## 8-byte Spill
	call	__ZNKSt3__16vectorIcNS_9allocatorIcEEE8max_sizeEv
	mov	rcx, qword ptr [rbp - 32]       ## 8-byte Reload
	cmp	rcx, rax
	jbe	LBB13_2
## %bb.1:
	mov	rdi, qword ptr [rbp - 24]       ## 8-byte Reload
	call	__ZNKSt3__120__vector_base_commonILb1EE20__throw_length_errorEv
LBB13_2:
	mov	rax, qword ptr [rbp - 24]       ## 8-byte Reload
	mov	rdi, rax
	call	__ZNSt3__113__vector_baseIcNS_9allocatorIcEEE7__allocEv
	mov	rsi, qword ptr [rbp - 16]
	mov	rdi, rax
	call	__ZNSt3__116allocator_traitsINS_9allocatorIcEEE8allocateERS2_m
	mov	rcx, qword ptr [rbp - 24]       ## 8-byte Reload
	mov	qword ptr [rcx + 8], rax
	mov	qword ptr [rcx], rax
	mov	rax, qword ptr [rcx]
	add	rax, qword ptr [rbp - 16]
	mov	rdi, rcx
	mov	qword ptr [rbp - 40], rax       ## 8-byte Spill
	call	__ZNSt3__113__vector_baseIcNS_9allocatorIcEEE9__end_capEv
	xor	edx, edx
	mov	esi, edx
	mov	rcx, qword ptr [rbp - 40]       ## 8-byte Reload
	mov	qword ptr [rax], rcx
	mov	rdi, qword ptr [rbp - 24]       ## 8-byte Reload
	call	__ZNKSt3__16vectorIcNS_9allocatorIcEEE14__annotate_newEm
	add	rsp, 48
	pop	rbp
	ret
	.cfi_endproc
                                        ## -- End function
	.p2align	4, 0x90                         ## -- Begin function _ZNSt3__16vectorIcNS_9allocatorIcEEE18__construct_at_endEmRKc
__ZNSt3__16vectorIcNS_9allocatorIcEEE18__construct_at_endEmRKc: ## @_ZNSt3__16vectorIcNS_9allocatorIcEEE18__construct_at_endEmRKc
Lfunc_begin4:
	.cfi_startproc
	.cfi_personality 155, ___gxx_personality_v0
	.cfi_lsda 16, Lexception4
## %bb.0:
	push	rbp
	.cfi_def_cfa_offset 16
	.cfi_offset rbp, -16
	mov	rbp, rsp
	.cfi_def_cfa_register rbp
	sub	rsp, 96
	mov	qword ptr [rbp - 8], rdi
	mov	qword ptr [rbp - 16], rsi
	mov	qword ptr [rbp - 24], rdx
	mov	rax, qword ptr [rbp - 8]
	mov	rdx, qword ptr [rbp - 16]
	lea	rdi, [rbp - 48]
	mov	rsi, rax
	mov	qword ptr [rbp - 88], rax       ## 8-byte Spill
	call	__ZNSt3__16vectorIcNS_9allocatorIcEEE21_ConstructTransactionC1ERS3_m
	mov	rax, qword ptr [rbp - 32]
	mov	qword ptr [rbp - 56], rax
	mov	rax, qword ptr [rbp - 40]
	mov	qword ptr [rbp - 64], rax
LBB14_1:                                ## =>This Inner Loop Header: Depth=1
	mov	rax, qword ptr [rbp - 64]
	cmp	rax, qword ptr [rbp - 56]
	je	LBB14_6
## %bb.2:                               ##   in Loop: Header=BB14_1 Depth=1
	mov	rdi, qword ptr [rbp - 88]       ## 8-byte Reload
	call	__ZNSt3__113__vector_baseIcNS_9allocatorIcEEE7__allocEv
	mov	rdi, qword ptr [rbp - 64]
	mov	qword ptr [rbp - 96], rax       ## 8-byte Spill
	call	__ZNSt3__1L12__to_addressIcEEPT_S2_
	mov	rdx, qword ptr [rbp - 24]
Ltmp67:
	mov	rdi, qword ptr [rbp - 96]       ## 8-byte Reload
	mov	rsi, rax
	call	__ZNSt3__116allocator_traitsINS_9allocatorIcEEE9constructIcJRKcEEEvRS2_PT_DpOT0_
Ltmp68:
	jmp	LBB14_3
LBB14_3:                                ##   in Loop: Header=BB14_1 Depth=1
	jmp	LBB14_4
LBB14_4:                                ##   in Loop: Header=BB14_1 Depth=1
	mov	rax, qword ptr [rbp - 64]
	add	rax, 1
	mov	qword ptr [rbp - 64], rax
	mov	rax, qword ptr [rbp - 64]
	mov	qword ptr [rbp - 40], rax
	jmp	LBB14_1
LBB14_5:
Ltmp69:
                                        ## kill: def $edx killed $edx killed $rdx
	mov	qword ptr [rbp - 72], rax
	mov	dword ptr [rbp - 76], edx
	lea	rdi, [rbp - 48]
	call	__ZNSt3__16vectorIcNS_9allocatorIcEEE21_ConstructTransactionD1Ev
	jmp	LBB14_7
LBB14_6:
	lea	rdi, [rbp - 48]
	call	__ZNSt3__16vectorIcNS_9allocatorIcEEE21_ConstructTransactionD1Ev
	add	rsp, 96
	pop	rbp
	ret
LBB14_7:
	mov	rdi, qword ptr [rbp - 72]
	call	__Unwind_Resume
	ud2
Lfunc_end4:
	.cfi_endproc
	.section	__TEXT,__gcc_except_tab
	.p2align	2
GCC_except_table14:
Lexception4:
	.byte	255                             ## @LPStart Encoding = omit
	.byte	255                             ## @TType Encoding = omit
	.byte	1                               ## Call site Encoding = uleb128
	.uleb128 Lcst_end4-Lcst_begin4
Lcst_begin4:
	.uleb128 Lfunc_begin4-Lfunc_begin4      ## >> Call Site 1 <<
	.uleb128 Ltmp67-Lfunc_begin4            ##   Call between Lfunc_begin4 and Ltmp67
	.byte	0                               ##     has no landing pad
	.byte	0                               ##   On action: cleanup
	.uleb128 Ltmp67-Lfunc_begin4            ## >> Call Site 2 <<
	.uleb128 Ltmp68-Ltmp67                  ##   Call between Ltmp67 and Ltmp68
	.uleb128 Ltmp69-Lfunc_begin4            ##     jumps to Ltmp69
	.byte	0                               ##   On action: cleanup
	.uleb128 Ltmp68-Lfunc_begin4            ## >> Call Site 3 <<
	.uleb128 Lfunc_end4-Ltmp68              ##   Call between Ltmp68 and Lfunc_end4
	.byte	0                               ##     has no landing pad
	.byte	0                               ##   On action: cleanup
Lcst_end4:
	.p2align	2
                                        ## -- End function
	.section	__TEXT,__text,regular,pure_instructions
	.globl	__ZNSt3__113__vector_baseIcNS_9allocatorIcEEED2Ev ## -- Begin function _ZNSt3__113__vector_baseIcNS_9allocatorIcEEED2Ev
	.weak_def_can_be_hidden	__ZNSt3__113__vector_baseIcNS_9allocatorIcEEED2Ev
	.p2align	4, 0x90
__ZNSt3__113__vector_baseIcNS_9allocatorIcEEED2Ev: ## @_ZNSt3__113__vector_baseIcNS_9allocatorIcEEED2Ev
	.cfi_startproc
## %bb.0:
	push	rbp
	.cfi_def_cfa_offset 16
	.cfi_offset rbp, -16
	mov	rbp, rsp
	.cfi_def_cfa_register rbp
	sub	rsp, 32
	mov	qword ptr [rbp - 8], rdi
	mov	rax, qword ptr [rbp - 8]
	cmp	qword ptr [rax], 0
	mov	qword ptr [rbp - 16], rax       ## 8-byte Spill
	je	LBB15_2
## %bb.1:
	mov	rdi, qword ptr [rbp - 16]       ## 8-byte Reload
	call	__ZNSt3__113__vector_baseIcNS_9allocatorIcEEE5clearEv
	mov	rdi, qword ptr [rbp - 16]       ## 8-byte Reload
	call	__ZNSt3__113__vector_baseIcNS_9allocatorIcEEE7__allocEv
	mov	rcx, qword ptr [rbp - 16]       ## 8-byte Reload
	mov	rsi, qword ptr [rcx]
	mov	rdi, rcx
	mov	qword ptr [rbp - 24], rax       ## 8-byte Spill
	mov	qword ptr [rbp - 32], rsi       ## 8-byte Spill
	call	__ZNKSt3__113__vector_baseIcNS_9allocatorIcEEE8capacityEv
	mov	rdi, qword ptr [rbp - 24]       ## 8-byte Reload
	mov	rsi, qword ptr [rbp - 32]       ## 8-byte Reload
	mov	rdx, rax
	call	__ZNSt3__116allocator_traitsINS_9allocatorIcEEE10deallocateERS2_Pcm
LBB15_2:
	add	rsp, 32
	pop	rbp
	ret
	.cfi_endproc
                                        ## -- End function
	.p2align	4, 0x90                         ## -- Begin function _ZNSt3__120__vector_base_commonILb1EEC2Ev
__ZNSt3__120__vector_base_commonILb1EEC2Ev: ## @_ZNSt3__120__vector_base_commonILb1EEC2Ev
	.cfi_startproc
## %bb.0:
	push	rbp
	.cfi_def_cfa_offset 16
	.cfi_offset rbp, -16
	mov	rbp, rsp
	.cfi_def_cfa_register rbp
	mov	qword ptr [rbp - 8], rdi
	pop	rbp
	ret
	.cfi_endproc
                                        ## -- End function
	.private_extern	___clang_call_terminate ## -- Begin function __clang_call_terminate
	.globl	___clang_call_terminate
	.weak_definition	___clang_call_terminate
	.p2align	4, 0x90
___clang_call_terminate:                ## @__clang_call_terminate
## %bb.0:
	push	rax
	call	___cxa_begin_catch
	mov	qword ptr [rsp], rax            ## 8-byte Spill
	call	__ZSt9terminatev
                                        ## -- End function
	.p2align	4, 0x90                         ## -- Begin function _ZNSt3__117__compressed_pairIPcNS_9allocatorIcEEEC1IDnNS_18__default_init_tagEEEOT_OT0_
__ZNSt3__117__compressed_pairIPcNS_9allocatorIcEEEC1IDnNS_18__default_init_tagEEEOT_OT0_: ## @_ZNSt3__117__compressed_pairIPcNS_9allocatorIcEEEC1IDnNS_18__default_init_tagEEEOT_OT0_
	.cfi_startproc
## %bb.0:
	push	rbp
	.cfi_def_cfa_offset 16
	.cfi_offset rbp, -16
	mov	rbp, rsp
	.cfi_def_cfa_register rbp
	sub	rsp, 32
	mov	qword ptr [rbp - 8], rdi
	mov	qword ptr [rbp - 16], rsi
	mov	qword ptr [rbp - 24], rdx
	mov	rdi, qword ptr [rbp - 8]
	mov	rsi, qword ptr [rbp - 16]
	mov	rdx, qword ptr [rbp - 24]
	call	__ZNSt3__117__compressed_pairIPcNS_9allocatorIcEEEC2IDnNS_18__default_init_tagEEEOT_OT0_
	add	rsp, 32
	pop	rbp
	ret
	.cfi_endproc
                                        ## -- End function
	.p2align	4, 0x90                         ## -- Begin function _ZNSt3__117__compressed_pairIPcNS_9allocatorIcEEEC2IDnNS_18__default_init_tagEEEOT_OT0_
__ZNSt3__117__compressed_pairIPcNS_9allocatorIcEEEC2IDnNS_18__default_init_tagEEEOT_OT0_: ## @_ZNSt3__117__compressed_pairIPcNS_9allocatorIcEEEC2IDnNS_18__default_init_tagEEEOT_OT0_
	.cfi_startproc
## %bb.0:
	push	rbp
	.cfi_def_cfa_offset 16
	.cfi_offset rbp, -16
	mov	rbp, rsp
	.cfi_def_cfa_register rbp
	sub	rsp, 64
	mov	qword ptr [rbp - 8], rdi
	mov	qword ptr [rbp - 16], rsi
	mov	qword ptr [rbp - 24], rdx
	mov	rax, qword ptr [rbp - 8]
	mov	rcx, rax
	mov	rdi, qword ptr [rbp - 16]
	mov	qword ptr [rbp - 40], rax       ## 8-byte Spill
	mov	qword ptr [rbp - 48], rcx       ## 8-byte Spill
	call	__ZNSt3__1L7forwardIDnEEOT_RNS_16remove_referenceIS1_E4typeE
	mov	rdi, qword ptr [rbp - 48]       ## 8-byte Reload
	mov	rsi, rax
	call	__ZNSt3__122__compressed_pair_elemIPcLi0ELb0EEC2IDnvEEOT_
	mov	rax, qword ptr [rbp - 40]       ## 8-byte Reload
	mov	rdi, qword ptr [rbp - 24]
	mov	qword ptr [rbp - 56], rax       ## 8-byte Spill
	call	__ZNSt3__1L7forwardINS_18__default_init_tagEEEOT_RNS_16remove_referenceIS2_E4typeE
	mov	rdi, qword ptr [rbp - 56]       ## 8-byte Reload
	mov	qword ptr [rbp - 64], rax       ## 8-byte Spill
	call	__ZNSt3__122__compressed_pair_elemINS_9allocatorIcEELi1ELb1EEC2ENS_18__default_init_tagE
	add	rsp, 64
	pop	rbp
	ret
	.cfi_endproc
                                        ## -- End function
	.p2align	4, 0x90                         ## -- Begin function _ZNSt3__1L7forwardIDnEEOT_RNS_16remove_referenceIS1_E4typeE
__ZNSt3__1L7forwardIDnEEOT_RNS_16remove_referenceIS1_E4typeE: ## @_ZNSt3__1L7forwardIDnEEOT_RNS_16remove_referenceIS1_E4typeE
	.cfi_startproc
## %bb.0:
	push	rbp
	.cfi_def_cfa_offset 16
	.cfi_offset rbp, -16
	mov	rbp, rsp
	.cfi_def_cfa_register rbp
	mov	qword ptr [rbp - 8], rdi
	mov	rax, qword ptr [rbp - 8]
	pop	rbp
	ret
	.cfi_endproc
                                        ## -- End function
	.p2align	4, 0x90                         ## -- Begin function _ZNSt3__122__compressed_pair_elemIPcLi0ELb0EEC2IDnvEEOT_
__ZNSt3__122__compressed_pair_elemIPcLi0ELb0EEC2IDnvEEOT_: ## @_ZNSt3__122__compressed_pair_elemIPcLi0ELb0EEC2IDnvEEOT_
	.cfi_startproc
## %bb.0:
	push	rbp
	.cfi_def_cfa_offset 16
	.cfi_offset rbp, -16
	mov	rbp, rsp
	.cfi_def_cfa_register rbp
	sub	rsp, 32
	mov	qword ptr [rbp - 8], rdi
	mov	qword ptr [rbp - 16], rsi
	mov	rax, qword ptr [rbp - 8]
	mov	rdi, qword ptr [rbp - 16]
	mov	qword ptr [rbp - 24], rax       ## 8-byte Spill
	call	__ZNSt3__1L7forwardIDnEEOT_RNS_16remove_referenceIS1_E4typeE
	mov	rcx, qword ptr [rbp - 24]       ## 8-byte Reload
	mov	qword ptr [rcx], 0
	add	rsp, 32
	pop	rbp
	ret
	.cfi_endproc
                                        ## -- End function
	.p2align	4, 0x90                         ## -- Begin function _ZNSt3__1L7forwardINS_18__default_init_tagEEEOT_RNS_16remove_referenceIS2_E4typeE
__ZNSt3__1L7forwardINS_18__default_init_tagEEEOT_RNS_16remove_referenceIS2_E4typeE: ## @_ZNSt3__1L7forwardINS_18__default_init_tagEEEOT_RNS_16remove_referenceIS2_E4typeE
	.cfi_startproc
## %bb.0:
	push	rbp
	.cfi_def_cfa_offset 16
	.cfi_offset rbp, -16
	mov	rbp, rsp
	.cfi_def_cfa_register rbp
	mov	qword ptr [rbp - 8], rdi
	mov	rax, qword ptr [rbp - 8]
	pop	rbp
	ret
	.cfi_endproc
                                        ## -- End function
	.p2align	4, 0x90                         ## -- Begin function _ZNSt3__122__compressed_pair_elemINS_9allocatorIcEELi1ELb1EEC2ENS_18__default_init_tagE
__ZNSt3__122__compressed_pair_elemINS_9allocatorIcEELi1ELb1EEC2ENS_18__default_init_tagE: ## @_ZNSt3__122__compressed_pair_elemINS_9allocatorIcEELi1ELb1EEC2ENS_18__default_init_tagE
	.cfi_startproc
## %bb.0:
	push	rbp
	.cfi_def_cfa_offset 16
	.cfi_offset rbp, -16
	mov	rbp, rsp
	.cfi_def_cfa_register rbp
	sub	rsp, 16
	mov	qword ptr [rbp - 16], rdi
	mov	rax, qword ptr [rbp - 16]
	mov	rdi, rax
	call	__ZNSt3__19allocatorIcEC2Ev
	add	rsp, 16
	pop	rbp
	ret
	.cfi_endproc
                                        ## -- End function
	.p2align	4, 0x90                         ## -- Begin function _ZNSt3__19allocatorIcEC2Ev
__ZNSt3__19allocatorIcEC2Ev:            ## @_ZNSt3__19allocatorIcEC2Ev
	.cfi_startproc
## %bb.0:
	push	rbp
	.cfi_def_cfa_offset 16
	.cfi_offset rbp, -16
	mov	rbp, rsp
	.cfi_def_cfa_register rbp
	mov	qword ptr [rbp - 8], rdi
	pop	rbp
	ret
	.cfi_endproc
                                        ## -- End function
	.globl	__ZNKSt3__16vectorIcNS_9allocatorIcEEE8max_sizeEv ## -- Begin function _ZNKSt3__16vectorIcNS_9allocatorIcEEE8max_sizeEv
	.weak_definition	__ZNKSt3__16vectorIcNS_9allocatorIcEEE8max_sizeEv
	.p2align	4, 0x90
__ZNKSt3__16vectorIcNS_9allocatorIcEEE8max_sizeEv: ## @_ZNKSt3__16vectorIcNS_9allocatorIcEEE8max_sizeEv
Lfunc_begin5:
	.cfi_startproc
	.cfi_personality 155, ___gxx_personality_v0
	.cfi_lsda 16, Lexception5
## %bb.0:
	push	rbp
	.cfi_def_cfa_offset 16
	.cfi_offset rbp, -16
	mov	rbp, rsp
	.cfi_def_cfa_register rbp
	sub	rsp, 48
	mov	qword ptr [rbp - 8], rdi
	mov	rdi, qword ptr [rbp - 8]
	call	__ZNKSt3__113__vector_baseIcNS_9allocatorIcEEE7__allocEv
	mov	rdi, rax
	call	__ZNSt3__116allocator_traitsINS_9allocatorIcEEE8max_sizeERKS2_
	mov	qword ptr [rbp - 16], rax
	call	__ZNSt3__114numeric_limitsIlE3maxEv
	mov	qword ptr [rbp - 24], rax
Ltmp70:
	lea	rdi, [rbp - 16]
	lea	rsi, [rbp - 24]
	call	__ZNSt3__1L3minImEERKT_S3_S3_
Ltmp71:
	mov	qword ptr [rbp - 32], rax       ## 8-byte Spill
	jmp	LBB25_1
LBB25_1:
	mov	rax, qword ptr [rbp - 32]       ## 8-byte Reload
	mov	rax, qword ptr [rax]
	add	rsp, 48
	pop	rbp
	ret
LBB25_2:
Ltmp72:
	mov	rdi, rax
	mov	qword ptr [rbp - 40], rdx       ## 8-byte Spill
	call	___clang_call_terminate
Lfunc_end5:
	.cfi_endproc
	.section	__TEXT,__gcc_except_tab
	.p2align	2
GCC_except_table25:
Lexception5:
	.byte	255                             ## @LPStart Encoding = omit
	.byte	155                             ## @TType Encoding = indirect pcrel sdata4
	.uleb128 Lttbase1-Lttbaseref1
Lttbaseref1:
	.byte	1                               ## Call site Encoding = uleb128
	.uleb128 Lcst_end5-Lcst_begin5
Lcst_begin5:
	.uleb128 Ltmp70-Lfunc_begin5            ## >> Call Site 1 <<
	.uleb128 Ltmp71-Ltmp70                  ##   Call between Ltmp70 and Ltmp71
	.uleb128 Ltmp72-Lfunc_begin5            ##     jumps to Ltmp72
	.byte	1                               ##   On action: 1
Lcst_end5:
	.byte	1                               ## >> Action Record 1 <<
                                        ##   Catch TypeInfo 1
	.byte	0                               ##   No further actions
	.p2align	2
                                        ## >> Catch TypeInfos <<
	.long	0                               ## TypeInfo 1
Lttbase1:
	.p2align	2
                                        ## -- End function
	.section	__TEXT,__text,regular,pure_instructions
	.p2align	4, 0x90                         ## -- Begin function _ZNSt3__116allocator_traitsINS_9allocatorIcEEE8allocateERS2_m
__ZNSt3__116allocator_traitsINS_9allocatorIcEEE8allocateERS2_m: ## @_ZNSt3__116allocator_traitsINS_9allocatorIcEEE8allocateERS2_m
	.cfi_startproc
## %bb.0:
	push	rbp
	.cfi_def_cfa_offset 16
	.cfi_offset rbp, -16
	mov	rbp, rsp
	.cfi_def_cfa_register rbp
	sub	rsp, 16
	mov	qword ptr [rbp - 8], rdi
	mov	qword ptr [rbp - 16], rsi
	mov	rdi, qword ptr [rbp - 8]
	mov	rsi, qword ptr [rbp - 16]
	call	__ZNSt3__19allocatorIcE8allocateEm
	add	rsp, 16
	pop	rbp
	ret
	.cfi_endproc
                                        ## -- End function
	.p2align	4, 0x90                         ## -- Begin function _ZNSt3__113__vector_baseIcNS_9allocatorIcEEE7__allocEv
__ZNSt3__113__vector_baseIcNS_9allocatorIcEEE7__allocEv: ## @_ZNSt3__113__vector_baseIcNS_9allocatorIcEEE7__allocEv
	.cfi_startproc
## %bb.0:
	push	rbp
	.cfi_def_cfa_offset 16
	.cfi_offset rbp, -16
	mov	rbp, rsp
	.cfi_def_cfa_register rbp
	sub	rsp, 16
	mov	qword ptr [rbp - 8], rdi
	mov	rax, qword ptr [rbp - 8]
	add	rax, 16
	mov	rdi, rax
	call	__ZNSt3__117__compressed_pairIPcNS_9allocatorIcEEE6secondEv
	add	rsp, 16
	pop	rbp
	ret
	.cfi_endproc
                                        ## -- End function
	.p2align	4, 0x90                         ## -- Begin function _ZNSt3__113__vector_baseIcNS_9allocatorIcEEE9__end_capEv
__ZNSt3__113__vector_baseIcNS_9allocatorIcEEE9__end_capEv: ## @_ZNSt3__113__vector_baseIcNS_9allocatorIcEEE9__end_capEv
	.cfi_startproc
## %bb.0:
	push	rbp
	.cfi_def_cfa_offset 16
	.cfi_offset rbp, -16
	mov	rbp, rsp
	.cfi_def_cfa_register rbp
	sub	rsp, 16
	mov	qword ptr [rbp - 8], rdi
	mov	rax, qword ptr [rbp - 8]
	add	rax, 16
	mov	rdi, rax
	call	__ZNSt3__117__compressed_pairIPcNS_9allocatorIcEEE5firstEv
	add	rsp, 16
	pop	rbp
	ret
	.cfi_endproc
                                        ## -- End function
	.p2align	4, 0x90                         ## -- Begin function _ZNKSt3__16vectorIcNS_9allocatorIcEEE14__annotate_newEm
__ZNKSt3__16vectorIcNS_9allocatorIcEEE14__annotate_newEm: ## @_ZNKSt3__16vectorIcNS_9allocatorIcEEE14__annotate_newEm
	.cfi_startproc
## %bb.0:
	push	rbp
	.cfi_def_cfa_offset 16
	.cfi_offset rbp, -16
	mov	rbp, rsp
	.cfi_def_cfa_register rbp
	sub	rsp, 64
	mov	qword ptr [rbp - 8], rdi
	mov	qword ptr [rbp - 16], rsi
	mov	rax, qword ptr [rbp - 8]
	mov	rdi, rax
	mov	qword ptr [rbp - 24], rax       ## 8-byte Spill
	call	__ZNKSt3__16vectorIcNS_9allocatorIcEEE4dataEv
	mov	rdi, qword ptr [rbp - 24]       ## 8-byte Reload
	mov	qword ptr [rbp - 32], rax       ## 8-byte Spill
	call	__ZNKSt3__16vectorIcNS_9allocatorIcEEE4dataEv
	mov	rdi, qword ptr [rbp - 24]       ## 8-byte Reload
	mov	qword ptr [rbp - 40], rax       ## 8-byte Spill
	call	__ZNKSt3__16vectorIcNS_9allocatorIcEEE8capacityEv
	mov	rcx, qword ptr [rbp - 40]       ## 8-byte Reload
	add	rcx, rax
	mov	rdi, qword ptr [rbp - 24]       ## 8-byte Reload
	mov	qword ptr [rbp - 48], rcx       ## 8-byte Spill
	call	__ZNKSt3__16vectorIcNS_9allocatorIcEEE4dataEv
	mov	rdi, qword ptr [rbp - 24]       ## 8-byte Reload
	mov	qword ptr [rbp - 56], rax       ## 8-byte Spill
	call	__ZNKSt3__16vectorIcNS_9allocatorIcEEE8capacityEv
	mov	rcx, qword ptr [rbp - 56]       ## 8-byte Reload
	add	rcx, rax
	mov	rdi, qword ptr [rbp - 24]       ## 8-byte Reload
	mov	qword ptr [rbp - 64], rcx       ## 8-byte Spill
	call	__ZNKSt3__16vectorIcNS_9allocatorIcEEE4dataEv
	add	rax, qword ptr [rbp - 16]
	mov	rdi, qword ptr [rbp - 24]       ## 8-byte Reload
	mov	rsi, qword ptr [rbp - 32]       ## 8-byte Reload
	mov	rdx, qword ptr [rbp - 48]       ## 8-byte Reload
	mov	rcx, qword ptr [rbp - 64]       ## 8-byte Reload
	mov	r8, rax
	call	__ZNKSt3__16vectorIcNS_9allocatorIcEEE31__annotate_contiguous_containerEPKvS5_S5_S5_
	add	rsp, 64
	pop	rbp
	ret
	.cfi_endproc
                                        ## -- End function
	.p2align	4, 0x90                         ## -- Begin function _ZNSt3__1L3minImEERKT_S3_S3_
__ZNSt3__1L3minImEERKT_S3_S3_:          ## @_ZNSt3__1L3minImEERKT_S3_S3_
	.cfi_startproc
## %bb.0:
	push	rbp
	.cfi_def_cfa_offset 16
	.cfi_offset rbp, -16
	mov	rbp, rsp
	.cfi_def_cfa_register rbp
	sub	rsp, 32
	mov	qword ptr [rbp - 8], rdi
	mov	qword ptr [rbp - 16], rsi
	mov	rdi, qword ptr [rbp - 8]
	mov	rsi, qword ptr [rbp - 16]
	call	__ZNSt3__1L3minImNS_6__lessImmEEEERKT_S5_S5_T0_
	add	rsp, 32
	pop	rbp
	ret
	.cfi_endproc
                                        ## -- End function
	.p2align	4, 0x90                         ## -- Begin function _ZNSt3__116allocator_traitsINS_9allocatorIcEEE8max_sizeERKS2_
__ZNSt3__116allocator_traitsINS_9allocatorIcEEE8max_sizeERKS2_: ## @_ZNSt3__116allocator_traitsINS_9allocatorIcEEE8max_sizeERKS2_
	.cfi_startproc
## %bb.0:
	push	rbp
	.cfi_def_cfa_offset 16
	.cfi_offset rbp, -16
	mov	rbp, rsp
	.cfi_def_cfa_register rbp
	sub	rsp, 32
	mov	qword ptr [rbp - 8], rdi
	mov	rdi, qword ptr [rbp - 8]
	call	__ZNSt3__116allocator_traitsINS_9allocatorIcEEE10__max_sizeENS_17integral_constantIbLb1EEERKS2_
	add	rsp, 32
	pop	rbp
	ret
	.cfi_endproc
                                        ## -- End function
	.p2align	4, 0x90                         ## -- Begin function _ZNKSt3__113__vector_baseIcNS_9allocatorIcEEE7__allocEv
__ZNKSt3__113__vector_baseIcNS_9allocatorIcEEE7__allocEv: ## @_ZNKSt3__113__vector_baseIcNS_9allocatorIcEEE7__allocEv
	.cfi_startproc
## %bb.0:
	push	rbp
	.cfi_def_cfa_offset 16
	.cfi_offset rbp, -16
	mov	rbp, rsp
	.cfi_def_cfa_register rbp
	sub	rsp, 16
	mov	qword ptr [rbp - 8], rdi
	mov	rax, qword ptr [rbp - 8]
	add	rax, 16
	mov	rdi, rax
	call	__ZNKSt3__117__compressed_pairIPcNS_9allocatorIcEEE6secondEv
	add	rsp, 16
	pop	rbp
	ret
	.cfi_endproc
                                        ## -- End function
	.p2align	4, 0x90                         ## -- Begin function _ZNSt3__114numeric_limitsIlE3maxEv
__ZNSt3__114numeric_limitsIlE3maxEv:    ## @_ZNSt3__114numeric_limitsIlE3maxEv
	.cfi_startproc
## %bb.0:
	push	rbp
	.cfi_def_cfa_offset 16
	.cfi_offset rbp, -16
	mov	rbp, rsp
	.cfi_def_cfa_register rbp
	call	__ZNSt3__123__libcpp_numeric_limitsIlLb1EE3maxEv
	pop	rbp
	ret
	.cfi_endproc
                                        ## -- End function
	.p2align	4, 0x90                         ## -- Begin function _ZNSt3__1L3minImNS_6__lessImmEEEERKT_S5_S5_T0_
__ZNSt3__1L3minImNS_6__lessImmEEEERKT_S5_S5_T0_: ## @_ZNSt3__1L3minImNS_6__lessImmEEEERKT_S5_S5_T0_
	.cfi_startproc
## %bb.0:
	push	rbp
	.cfi_def_cfa_offset 16
	.cfi_offset rbp, -16
	mov	rbp, rsp
	.cfi_def_cfa_register rbp
	sub	rsp, 32
	mov	qword ptr [rbp - 16], rdi
	mov	qword ptr [rbp - 24], rsi
	mov	rsi, qword ptr [rbp - 24]
	mov	rdx, qword ptr [rbp - 16]
	lea	rdi, [rbp - 8]
	call	__ZNKSt3__16__lessImmEclERKmS3_
	test	al, 1
	jne	LBB34_1
	jmp	LBB34_2
LBB34_1:
	mov	rax, qword ptr [rbp - 24]
	mov	qword ptr [rbp - 32], rax       ## 8-byte Spill
	jmp	LBB34_3
LBB34_2:
	mov	rax, qword ptr [rbp - 16]
	mov	qword ptr [rbp - 32], rax       ## 8-byte Spill
LBB34_3:
	mov	rax, qword ptr [rbp - 32]       ## 8-byte Reload
	add	rsp, 32
	pop	rbp
	ret
	.cfi_endproc
                                        ## -- End function
	.p2align	4, 0x90                         ## -- Begin function _ZNKSt3__16__lessImmEclERKmS3_
__ZNKSt3__16__lessImmEclERKmS3_:        ## @_ZNKSt3__16__lessImmEclERKmS3_
	.cfi_startproc
## %bb.0:
	push	rbp
	.cfi_def_cfa_offset 16
	.cfi_offset rbp, -16
	mov	rbp, rsp
	.cfi_def_cfa_register rbp
	mov	qword ptr [rbp - 8], rdi
	mov	qword ptr [rbp - 16], rsi
	mov	qword ptr [rbp - 24], rdx
	mov	rax, qword ptr [rbp - 16]
	mov	rax, qword ptr [rax]
	mov	rcx, qword ptr [rbp - 24]
	cmp	rax, qword ptr [rcx]
	setb	r8b
	and	r8b, 1
	movzx	eax, r8b
	pop	rbp
	ret
	.cfi_endproc
                                        ## -- End function
	.p2align	4, 0x90                         ## -- Begin function _ZNSt3__116allocator_traitsINS_9allocatorIcEEE10__max_sizeENS_17integral_constantIbLb1EEERKS2_
__ZNSt3__116allocator_traitsINS_9allocatorIcEEE10__max_sizeENS_17integral_constantIbLb1EEERKS2_: ## @_ZNSt3__116allocator_traitsINS_9allocatorIcEEE10__max_sizeENS_17integral_constantIbLb1EEERKS2_
	.cfi_startproc
## %bb.0:
	push	rbp
	.cfi_def_cfa_offset 16
	.cfi_offset rbp, -16
	mov	rbp, rsp
	.cfi_def_cfa_register rbp
	sub	rsp, 16
	mov	qword ptr [rbp - 16], rdi
	mov	rdi, qword ptr [rbp - 16]
	call	__ZNKSt3__19allocatorIcE8max_sizeEv
	add	rsp, 16
	pop	rbp
	ret
	.cfi_endproc
                                        ## -- End function
	.p2align	4, 0x90                         ## -- Begin function _ZNKSt3__19allocatorIcE8max_sizeEv
__ZNKSt3__19allocatorIcE8max_sizeEv:    ## @_ZNKSt3__19allocatorIcE8max_sizeEv
	.cfi_startproc
## %bb.0:
	push	rbp
	.cfi_def_cfa_offset 16
	.cfi_offset rbp, -16
	mov	rbp, rsp
	.cfi_def_cfa_register rbp
	mov	qword ptr [rbp - 8], rdi
	mov	rax, -1
	pop	rbp
	ret
	.cfi_endproc
                                        ## -- End function
	.p2align	4, 0x90                         ## -- Begin function _ZNKSt3__117__compressed_pairIPcNS_9allocatorIcEEE6secondEv
__ZNKSt3__117__compressed_pairIPcNS_9allocatorIcEEE6secondEv: ## @_ZNKSt3__117__compressed_pairIPcNS_9allocatorIcEEE6secondEv
	.cfi_startproc
## %bb.0:
	push	rbp
	.cfi_def_cfa_offset 16
	.cfi_offset rbp, -16
	mov	rbp, rsp
	.cfi_def_cfa_register rbp
	sub	rsp, 16
	mov	qword ptr [rbp - 8], rdi
	mov	rax, qword ptr [rbp - 8]
	mov	rdi, rax
	call	__ZNKSt3__122__compressed_pair_elemINS_9allocatorIcEELi1ELb1EE5__getEv
	add	rsp, 16
	pop	rbp
	ret
	.cfi_endproc
                                        ## -- End function
	.p2align	4, 0x90                         ## -- Begin function _ZNKSt3__122__compressed_pair_elemINS_9allocatorIcEELi1ELb1EE5__getEv
__ZNKSt3__122__compressed_pair_elemINS_9allocatorIcEELi1ELb1EE5__getEv: ## @_ZNKSt3__122__compressed_pair_elemINS_9allocatorIcEELi1ELb1EE5__getEv
	.cfi_startproc
## %bb.0:
	push	rbp
	.cfi_def_cfa_offset 16
	.cfi_offset rbp, -16
	mov	rbp, rsp
	.cfi_def_cfa_register rbp
	mov	qword ptr [rbp - 8], rdi
	mov	rax, qword ptr [rbp - 8]
	pop	rbp
	ret
	.cfi_endproc
                                        ## -- End function
	.p2align	4, 0x90                         ## -- Begin function _ZNSt3__123__libcpp_numeric_limitsIlLb1EE3maxEv
__ZNSt3__123__libcpp_numeric_limitsIlLb1EE3maxEv: ## @_ZNSt3__123__libcpp_numeric_limitsIlLb1EE3maxEv
	.cfi_startproc
## %bb.0:
	push	rbp
	.cfi_def_cfa_offset 16
	.cfi_offset rbp, -16
	mov	rbp, rsp
	.cfi_def_cfa_register rbp
	movabs	rax, 9223372036854775807
	pop	rbp
	ret
	.cfi_endproc
                                        ## -- End function
	.p2align	4, 0x90                         ## -- Begin function _ZNSt3__19allocatorIcE8allocateEm
__ZNSt3__19allocatorIcE8allocateEm:     ## @_ZNSt3__19allocatorIcE8allocateEm
	.cfi_startproc
## %bb.0:
	push	rbp
	.cfi_def_cfa_offset 16
	.cfi_offset rbp, -16
	mov	rbp, rsp
	.cfi_def_cfa_register rbp
	sub	rsp, 16
	mov	qword ptr [rbp - 8], rdi
	mov	qword ptr [rbp - 16], rsi
	cmp	qword ptr [rbp - 16], -1
	jbe	LBB41_2
## %bb.1:
	lea	rdi, [rip + L_.str]
	call	__ZNSt3__1L20__throw_length_errorEPKc
LBB41_2:
	mov	rax, qword ptr [rbp - 16]
	shl	rax, 0
	mov	rdi, rax
	mov	esi, 1
	call	__ZNSt3__1L17__libcpp_allocateEmm
	add	rsp, 16
	pop	rbp
	ret
	.cfi_endproc
                                        ## -- End function
	.p2align	4, 0x90                         ## -- Begin function _ZNSt3__1L20__throw_length_errorEPKc
__ZNSt3__1L20__throw_length_errorEPKc:  ## @_ZNSt3__1L20__throw_length_errorEPKc
Lfunc_begin6:
	.cfi_startproc
	.cfi_personality 155, ___gxx_personality_v0
	.cfi_lsda 16, Lexception6
## %bb.0:
	push	rbp
	.cfi_def_cfa_offset 16
	.cfi_offset rbp, -16
	mov	rbp, rsp
	.cfi_def_cfa_register rbp
	sub	rsp, 32
	mov	qword ptr [rbp - 8], rdi
	mov	edi, 16
	call	___cxa_allocate_exception
	mov	rcx, rax
	mov	rsi, qword ptr [rbp - 8]
Ltmp73:
	mov	rdi, rax
	mov	qword ptr [rbp - 32], rcx       ## 8-byte Spill
	call	__ZNSt12length_errorC1EPKc
Ltmp74:
	jmp	LBB42_1
LBB42_1:
	mov	rsi, qword ptr [rip + __ZTISt12length_error@GOTPCREL]
	mov	rdx, qword ptr [rip + __ZNSt12length_errorD1Ev@GOTPCREL]
	mov	rdi, qword ptr [rbp - 32]       ## 8-byte Reload
	call	___cxa_throw
LBB42_2:
Ltmp75:
                                        ## kill: def $edx killed $edx killed $rdx
	mov	qword ptr [rbp - 16], rax
	mov	dword ptr [rbp - 20], edx
	mov	rdi, qword ptr [rbp - 32]       ## 8-byte Reload
	call	___cxa_free_exception
## %bb.3:
	mov	rdi, qword ptr [rbp - 16]
	call	__Unwind_Resume
	ud2
Lfunc_end6:
	.cfi_endproc
	.section	__TEXT,__gcc_except_tab
	.p2align	2
GCC_except_table42:
Lexception6:
	.byte	255                             ## @LPStart Encoding = omit
	.byte	255                             ## @TType Encoding = omit
	.byte	1                               ## Call site Encoding = uleb128
	.uleb128 Lcst_end6-Lcst_begin6
Lcst_begin6:
	.uleb128 Lfunc_begin6-Lfunc_begin6      ## >> Call Site 1 <<
	.uleb128 Ltmp73-Lfunc_begin6            ##   Call between Lfunc_begin6 and Ltmp73
	.byte	0                               ##     has no landing pad
	.byte	0                               ##   On action: cleanup
	.uleb128 Ltmp73-Lfunc_begin6            ## >> Call Site 2 <<
	.uleb128 Ltmp74-Ltmp73                  ##   Call between Ltmp73 and Ltmp74
	.uleb128 Ltmp75-Lfunc_begin6            ##     jumps to Ltmp75
	.byte	0                               ##   On action: cleanup
	.uleb128 Ltmp74-Lfunc_begin6            ## >> Call Site 3 <<
	.uleb128 Lfunc_end6-Ltmp74              ##   Call between Ltmp74 and Lfunc_end6
	.byte	0                               ##     has no landing pad
	.byte	0                               ##   On action: cleanup
Lcst_end6:
	.p2align	2
                                        ## -- End function
	.section	__TEXT,__text,regular,pure_instructions
	.p2align	4, 0x90                         ## -- Begin function _ZNSt3__1L17__libcpp_allocateEmm
__ZNSt3__1L17__libcpp_allocateEmm:      ## @_ZNSt3__1L17__libcpp_allocateEmm
	.cfi_startproc
## %bb.0:
	push	rbp
	.cfi_def_cfa_offset 16
	.cfi_offset rbp, -16
	mov	rbp, rsp
	.cfi_def_cfa_register rbp
	sub	rsp, 32
	mov	qword ptr [rbp - 16], rdi
	mov	qword ptr [rbp - 24], rsi
	mov	rdi, qword ptr [rbp - 24]
	call	__ZNSt3__1L24__is_overaligned_for_newEm
	test	al, 1
	jne	LBB43_1
	jmp	LBB43_2
LBB43_1:
	mov	rax, qword ptr [rbp - 24]
	mov	qword ptr [rbp - 32], rax
	mov	rdi, qword ptr [rbp - 16]
	mov	rsi, qword ptr [rbp - 32]
	call	__ZnwmSt11align_val_t
	mov	qword ptr [rbp - 8], rax
	jmp	LBB43_3
LBB43_2:
	mov	rdi, qword ptr [rbp - 16]
	call	__Znwm
	mov	qword ptr [rbp - 8], rax
LBB43_3:
	mov	rax, qword ptr [rbp - 8]
	add	rsp, 32
	pop	rbp
	ret
	.cfi_endproc
                                        ## -- End function
	.p2align	4, 0x90                         ## -- Begin function _ZNSt12length_errorC1EPKc
__ZNSt12length_errorC1EPKc:             ## @_ZNSt12length_errorC1EPKc
	.cfi_startproc
## %bb.0:
	push	rbp
	.cfi_def_cfa_offset 16
	.cfi_offset rbp, -16
	mov	rbp, rsp
	.cfi_def_cfa_register rbp
	sub	rsp, 16
	mov	qword ptr [rbp - 8], rdi
	mov	qword ptr [rbp - 16], rsi
	mov	rdi, qword ptr [rbp - 8]
	mov	rsi, qword ptr [rbp - 16]
	call	__ZNSt12length_errorC2EPKc
	add	rsp, 16
	pop	rbp
	ret
	.cfi_endproc
                                        ## -- End function
	.p2align	4, 0x90                         ## -- Begin function _ZNSt12length_errorC2EPKc
__ZNSt12length_errorC2EPKc:             ## @_ZNSt12length_errorC2EPKc
	.cfi_startproc
## %bb.0:
	push	rbp
	.cfi_def_cfa_offset 16
	.cfi_offset rbp, -16
	mov	rbp, rsp
	.cfi_def_cfa_register rbp
	sub	rsp, 32
	mov	qword ptr [rbp - 8], rdi
	mov	qword ptr [rbp - 16], rsi
	mov	rax, qword ptr [rbp - 8]
	mov	rcx, rax
	mov	rsi, qword ptr [rbp - 16]
	mov	rdi, rcx
	mov	qword ptr [rbp - 24], rax       ## 8-byte Spill
	call	__ZNSt11logic_errorC2EPKc
	mov	rax, qword ptr [rip + __ZTVSt12length_error@GOTPCREL]
	add	rax, 16
	mov	rcx, qword ptr [rbp - 24]       ## 8-byte Reload
	mov	qword ptr [rcx], rax
	add	rsp, 32
	pop	rbp
	ret
	.cfi_endproc
                                        ## -- End function
	.p2align	4, 0x90                         ## -- Begin function _ZNSt3__1L24__is_overaligned_for_newEm
__ZNSt3__1L24__is_overaligned_for_newEm: ## @_ZNSt3__1L24__is_overaligned_for_newEm
	.cfi_startproc
## %bb.0:
	push	rbp
	.cfi_def_cfa_offset 16
	.cfi_offset rbp, -16
	mov	rbp, rsp
	.cfi_def_cfa_register rbp
	mov	qword ptr [rbp - 8], rdi
	cmp	qword ptr [rbp - 8], 16
	seta	al
	and	al, 1
	movzx	eax, al
	pop	rbp
	ret
	.cfi_endproc
                                        ## -- End function
	.p2align	4, 0x90                         ## -- Begin function _ZNSt3__117__compressed_pairIPcNS_9allocatorIcEEE6secondEv
__ZNSt3__117__compressed_pairIPcNS_9allocatorIcEEE6secondEv: ## @_ZNSt3__117__compressed_pairIPcNS_9allocatorIcEEE6secondEv
	.cfi_startproc
## %bb.0:
	push	rbp
	.cfi_def_cfa_offset 16
	.cfi_offset rbp, -16
	mov	rbp, rsp
	.cfi_def_cfa_register rbp
	sub	rsp, 16
	mov	qword ptr [rbp - 8], rdi
	mov	rax, qword ptr [rbp - 8]
	mov	rdi, rax
	call	__ZNSt3__122__compressed_pair_elemINS_9allocatorIcEELi1ELb1EE5__getEv
	add	rsp, 16
	pop	rbp
	ret
	.cfi_endproc
                                        ## -- End function
	.p2align	4, 0x90                         ## -- Begin function _ZNSt3__122__compressed_pair_elemINS_9allocatorIcEELi1ELb1EE5__getEv
__ZNSt3__122__compressed_pair_elemINS_9allocatorIcEELi1ELb1EE5__getEv: ## @_ZNSt3__122__compressed_pair_elemINS_9allocatorIcEELi1ELb1EE5__getEv
	.cfi_startproc
## %bb.0:
	push	rbp
	.cfi_def_cfa_offset 16
	.cfi_offset rbp, -16
	mov	rbp, rsp
	.cfi_def_cfa_register rbp
	mov	qword ptr [rbp - 8], rdi
	mov	rax, qword ptr [rbp - 8]
	pop	rbp
	ret
	.cfi_endproc
                                        ## -- End function
	.p2align	4, 0x90                         ## -- Begin function _ZNSt3__117__compressed_pairIPcNS_9allocatorIcEEE5firstEv
__ZNSt3__117__compressed_pairIPcNS_9allocatorIcEEE5firstEv: ## @_ZNSt3__117__compressed_pairIPcNS_9allocatorIcEEE5firstEv
	.cfi_startproc
## %bb.0:
	push	rbp
	.cfi_def_cfa_offset 16
	.cfi_offset rbp, -16
	mov	rbp, rsp
	.cfi_def_cfa_register rbp
	sub	rsp, 16
	mov	qword ptr [rbp - 8], rdi
	mov	rax, qword ptr [rbp - 8]
	mov	rdi, rax
	call	__ZNSt3__122__compressed_pair_elemIPcLi0ELb0EE5__getEv
	add	rsp, 16
	pop	rbp
	ret
	.cfi_endproc
                                        ## -- End function
	.p2align	4, 0x90                         ## -- Begin function _ZNSt3__122__compressed_pair_elemIPcLi0ELb0EE5__getEv
__ZNSt3__122__compressed_pair_elemIPcLi0ELb0EE5__getEv: ## @_ZNSt3__122__compressed_pair_elemIPcLi0ELb0EE5__getEv
	.cfi_startproc
## %bb.0:
	push	rbp
	.cfi_def_cfa_offset 16
	.cfi_offset rbp, -16
	mov	rbp, rsp
	.cfi_def_cfa_register rbp
	mov	qword ptr [rbp - 8], rdi
	mov	rax, qword ptr [rbp - 8]
	pop	rbp
	ret
	.cfi_endproc
                                        ## -- End function
	.p2align	4, 0x90                         ## -- Begin function _ZNKSt3__16vectorIcNS_9allocatorIcEEE31__annotate_contiguous_containerEPKvS5_S5_S5_
__ZNKSt3__16vectorIcNS_9allocatorIcEEE31__annotate_contiguous_containerEPKvS5_S5_S5_: ## @_ZNKSt3__16vectorIcNS_9allocatorIcEEE31__annotate_contiguous_containerEPKvS5_S5_S5_
	.cfi_startproc
## %bb.0:
	push	rbp
	.cfi_def_cfa_offset 16
	.cfi_offset rbp, -16
	mov	rbp, rsp
	.cfi_def_cfa_register rbp
	mov	qword ptr [rbp - 8], rdi
	mov	qword ptr [rbp - 16], rsi
	mov	qword ptr [rbp - 24], rdx
	mov	qword ptr [rbp - 32], rcx
	mov	qword ptr [rbp - 40], r8
	pop	rbp
	ret
	.cfi_endproc
                                        ## -- End function
	.p2align	4, 0x90                         ## -- Begin function _ZNKSt3__16vectorIcNS_9allocatorIcEEE4dataEv
__ZNKSt3__16vectorIcNS_9allocatorIcEEE4dataEv: ## @_ZNKSt3__16vectorIcNS_9allocatorIcEEE4dataEv
	.cfi_startproc
## %bb.0:
	push	rbp
	.cfi_def_cfa_offset 16
	.cfi_offset rbp, -16
	mov	rbp, rsp
	.cfi_def_cfa_register rbp
	sub	rsp, 16
	mov	qword ptr [rbp - 8], rdi
	mov	rax, qword ptr [rbp - 8]
	mov	rdi, qword ptr [rax]
	call	__ZNSt3__1L12__to_addressIcEEPT_S2_
	add	rsp, 16
	pop	rbp
	ret
	.cfi_endproc
                                        ## -- End function
	.p2align	4, 0x90                         ## -- Begin function _ZNKSt3__16vectorIcNS_9allocatorIcEEE8capacityEv
__ZNKSt3__16vectorIcNS_9allocatorIcEEE8capacityEv: ## @_ZNKSt3__16vectorIcNS_9allocatorIcEEE8capacityEv
	.cfi_startproc
## %bb.0:
	push	rbp
	.cfi_def_cfa_offset 16
	.cfi_offset rbp, -16
	mov	rbp, rsp
	.cfi_def_cfa_register rbp
	sub	rsp, 16
	mov	qword ptr [rbp - 8], rdi
	mov	rax, qword ptr [rbp - 8]
	mov	rdi, rax
	call	__ZNKSt3__113__vector_baseIcNS_9allocatorIcEEE8capacityEv
	add	rsp, 16
	pop	rbp
	ret
	.cfi_endproc
                                        ## -- End function
	.p2align	4, 0x90                         ## -- Begin function _ZNSt3__1L12__to_addressIcEEPT_S2_
__ZNSt3__1L12__to_addressIcEEPT_S2_:    ## @_ZNSt3__1L12__to_addressIcEEPT_S2_
	.cfi_startproc
## %bb.0:
	push	rbp
	.cfi_def_cfa_offset 16
	.cfi_offset rbp, -16
	mov	rbp, rsp
	.cfi_def_cfa_register rbp
	mov	qword ptr [rbp - 8], rdi
	mov	rax, qword ptr [rbp - 8]
	pop	rbp
	ret
	.cfi_endproc
                                        ## -- End function
	.p2align	4, 0x90                         ## -- Begin function _ZNKSt3__113__vector_baseIcNS_9allocatorIcEEE8capacityEv
__ZNKSt3__113__vector_baseIcNS_9allocatorIcEEE8capacityEv: ## @_ZNKSt3__113__vector_baseIcNS_9allocatorIcEEE8capacityEv
	.cfi_startproc
## %bb.0:
	push	rbp
	.cfi_def_cfa_offset 16
	.cfi_offset rbp, -16
	mov	rbp, rsp
	.cfi_def_cfa_register rbp
	sub	rsp, 16
	mov	qword ptr [rbp - 8], rdi
	mov	rax, qword ptr [rbp - 8]
	mov	rdi, rax
	mov	qword ptr [rbp - 16], rax       ## 8-byte Spill
	call	__ZNKSt3__113__vector_baseIcNS_9allocatorIcEEE9__end_capEv
	mov	rax, qword ptr [rax]
	mov	rcx, qword ptr [rbp - 16]       ## 8-byte Reload
	mov	rdx, qword ptr [rcx]
	sub	rax, rdx
	add	rsp, 16
	pop	rbp
	ret
	.cfi_endproc
                                        ## -- End function
	.p2align	4, 0x90                         ## -- Begin function _ZNKSt3__113__vector_baseIcNS_9allocatorIcEEE9__end_capEv
__ZNKSt3__113__vector_baseIcNS_9allocatorIcEEE9__end_capEv: ## @_ZNKSt3__113__vector_baseIcNS_9allocatorIcEEE9__end_capEv
	.cfi_startproc
## %bb.0:
	push	rbp
	.cfi_def_cfa_offset 16
	.cfi_offset rbp, -16
	mov	rbp, rsp
	.cfi_def_cfa_register rbp
	sub	rsp, 16
	mov	qword ptr [rbp - 8], rdi
	mov	rax, qword ptr [rbp - 8]
	add	rax, 16
	mov	rdi, rax
	call	__ZNKSt3__117__compressed_pairIPcNS_9allocatorIcEEE5firstEv
	add	rsp, 16
	pop	rbp
	ret
	.cfi_endproc
                                        ## -- End function
	.p2align	4, 0x90                         ## -- Begin function _ZNKSt3__117__compressed_pairIPcNS_9allocatorIcEEE5firstEv
__ZNKSt3__117__compressed_pairIPcNS_9allocatorIcEEE5firstEv: ## @_ZNKSt3__117__compressed_pairIPcNS_9allocatorIcEEE5firstEv
	.cfi_startproc
## %bb.0:
	push	rbp
	.cfi_def_cfa_offset 16
	.cfi_offset rbp, -16
	mov	rbp, rsp
	.cfi_def_cfa_register rbp
	sub	rsp, 16
	mov	qword ptr [rbp - 8], rdi
	mov	rax, qword ptr [rbp - 8]
	mov	rdi, rax
	call	__ZNKSt3__122__compressed_pair_elemIPcLi0ELb0EE5__getEv
	add	rsp, 16
	pop	rbp
	ret
	.cfi_endproc
                                        ## -- End function
	.p2align	4, 0x90                         ## -- Begin function _ZNKSt3__122__compressed_pair_elemIPcLi0ELb0EE5__getEv
__ZNKSt3__122__compressed_pair_elemIPcLi0ELb0EE5__getEv: ## @_ZNKSt3__122__compressed_pair_elemIPcLi0ELb0EE5__getEv
	.cfi_startproc
## %bb.0:
	push	rbp
	.cfi_def_cfa_offset 16
	.cfi_offset rbp, -16
	mov	rbp, rsp
	.cfi_def_cfa_register rbp
	mov	qword ptr [rbp - 8], rdi
	mov	rax, qword ptr [rbp - 8]
	pop	rbp
	ret
	.cfi_endproc
                                        ## -- End function
	.globl	__ZNSt3__16vectorIcNS_9allocatorIcEEE21_ConstructTransactionC1ERS3_m ## -- Begin function _ZNSt3__16vectorIcNS_9allocatorIcEEE21_ConstructTransactionC1ERS3_m
	.weak_def_can_be_hidden	__ZNSt3__16vectorIcNS_9allocatorIcEEE21_ConstructTransactionC1ERS3_m
	.p2align	4, 0x90
__ZNSt3__16vectorIcNS_9allocatorIcEEE21_ConstructTransactionC1ERS3_m: ## @_ZNSt3__16vectorIcNS_9allocatorIcEEE21_ConstructTransactionC1ERS3_m
	.cfi_startproc
## %bb.0:
	push	rbp
	.cfi_def_cfa_offset 16
	.cfi_offset rbp, -16
	mov	rbp, rsp
	.cfi_def_cfa_register rbp
	sub	rsp, 32
	mov	qword ptr [rbp - 8], rdi
	mov	qword ptr [rbp - 16], rsi
	mov	qword ptr [rbp - 24], rdx
	mov	rdi, qword ptr [rbp - 8]
	mov	rsi, qword ptr [rbp - 16]
	mov	rdx, qword ptr [rbp - 24]
	call	__ZNSt3__16vectorIcNS_9allocatorIcEEE21_ConstructTransactionC2ERS3_m
	add	rsp, 32
	pop	rbp
	ret
	.cfi_endproc
                                        ## -- End function
	.p2align	4, 0x90                         ## -- Begin function _ZNSt3__116allocator_traitsINS_9allocatorIcEEE9constructIcJRKcEEEvRS2_PT_DpOT0_
__ZNSt3__116allocator_traitsINS_9allocatorIcEEE9constructIcJRKcEEEvRS2_PT_DpOT0_: ## @_ZNSt3__116allocator_traitsINS_9allocatorIcEEE9constructIcJRKcEEEvRS2_PT_DpOT0_
	.cfi_startproc
## %bb.0:
	push	rbp
	.cfi_def_cfa_offset 16
	.cfi_offset rbp, -16
	mov	rbp, rsp
	.cfi_def_cfa_register rbp
	sub	rsp, 64
	mov	qword ptr [rbp - 8], rdi
	mov	qword ptr [rbp - 16], rsi
	mov	qword ptr [rbp - 24], rdx
	mov	rdi, qword ptr [rbp - 8]
	mov	rsi, qword ptr [rbp - 16]
	mov	rax, qword ptr [rbp - 24]
	mov	qword ptr [rbp - 48], rdi       ## 8-byte Spill
	mov	rdi, rax
	mov	qword ptr [rbp - 56], rsi       ## 8-byte Spill
	call	__ZNSt3__1L7forwardIRKcEEOT_RNS_16remove_referenceIS3_E4typeE
	mov	rdi, qword ptr [rbp - 48]       ## 8-byte Reload
	mov	rsi, qword ptr [rbp - 56]       ## 8-byte Reload
	mov	rdx, rax
	call	__ZNSt3__116allocator_traitsINS_9allocatorIcEEE11__constructIcJRKcEEEvNS_17integral_constantIbLb1EEERS2_PT_DpOT0_
	add	rsp, 64
	pop	rbp
	ret
	.cfi_endproc
                                        ## -- End function
	.globl	__ZNSt3__16vectorIcNS_9allocatorIcEEE21_ConstructTransactionD1Ev ## -- Begin function _ZNSt3__16vectorIcNS_9allocatorIcEEE21_ConstructTransactionD1Ev
	.weak_def_can_be_hidden	__ZNSt3__16vectorIcNS_9allocatorIcEEE21_ConstructTransactionD1Ev
	.p2align	4, 0x90
__ZNSt3__16vectorIcNS_9allocatorIcEEE21_ConstructTransactionD1Ev: ## @_ZNSt3__16vectorIcNS_9allocatorIcEEE21_ConstructTransactionD1Ev
	.cfi_startproc
## %bb.0:
	push	rbp
	.cfi_def_cfa_offset 16
	.cfi_offset rbp, -16
	mov	rbp, rsp
	.cfi_def_cfa_register rbp
	sub	rsp, 16
	mov	qword ptr [rbp - 8], rdi
	mov	rdi, qword ptr [rbp - 8]
	call	__ZNSt3__16vectorIcNS_9allocatorIcEEE21_ConstructTransactionD2Ev
	add	rsp, 16
	pop	rbp
	ret
	.cfi_endproc
                                        ## -- End function
	.globl	__ZNSt3__16vectorIcNS_9allocatorIcEEE21_ConstructTransactionC2ERS3_m ## -- Begin function _ZNSt3__16vectorIcNS_9allocatorIcEEE21_ConstructTransactionC2ERS3_m
	.weak_def_can_be_hidden	__ZNSt3__16vectorIcNS_9allocatorIcEEE21_ConstructTransactionC2ERS3_m
	.p2align	4, 0x90
__ZNSt3__16vectorIcNS_9allocatorIcEEE21_ConstructTransactionC2ERS3_m: ## @_ZNSt3__16vectorIcNS_9allocatorIcEEE21_ConstructTransactionC2ERS3_m
	.cfi_startproc
## %bb.0:
	push	rbp
	.cfi_def_cfa_offset 16
	.cfi_offset rbp, -16
	mov	rbp, rsp
	.cfi_def_cfa_register rbp
	mov	qword ptr [rbp - 8], rdi
	mov	qword ptr [rbp - 16], rsi
	mov	qword ptr [rbp - 24], rdx
	mov	rax, qword ptr [rbp - 8]
	mov	rcx, qword ptr [rbp - 16]
	mov	qword ptr [rax], rcx
	mov	rcx, qword ptr [rbp - 16]
	mov	rcx, qword ptr [rcx + 8]
	mov	qword ptr [rax + 8], rcx
	mov	rcx, qword ptr [rbp - 16]
	mov	rcx, qword ptr [rcx + 8]
	add	rcx, qword ptr [rbp - 24]
	mov	qword ptr [rax + 16], rcx
	pop	rbp
	ret
	.cfi_endproc
                                        ## -- End function
	.p2align	4, 0x90                         ## -- Begin function _ZNSt3__116allocator_traitsINS_9allocatorIcEEE11__constructIcJRKcEEEvNS_17integral_constantIbLb1EEERS2_PT_DpOT0_
__ZNSt3__116allocator_traitsINS_9allocatorIcEEE11__constructIcJRKcEEEvNS_17integral_constantIbLb1EEERS2_PT_DpOT0_: ## @_ZNSt3__116allocator_traitsINS_9allocatorIcEEE11__constructIcJRKcEEEvNS_17integral_constantIbLb1EEERS2_PT_DpOT0_
	.cfi_startproc
## %bb.0:
	push	rbp
	.cfi_def_cfa_offset 16
	.cfi_offset rbp, -16
	mov	rbp, rsp
	.cfi_def_cfa_register rbp
	sub	rsp, 48
	mov	qword ptr [rbp - 16], rdi
	mov	qword ptr [rbp - 24], rsi
	mov	qword ptr [rbp - 32], rdx
	mov	rdi, qword ptr [rbp - 16]
	mov	rsi, qword ptr [rbp - 24]
	mov	rax, qword ptr [rbp - 32]
	mov	qword ptr [rbp - 40], rdi       ## 8-byte Spill
	mov	rdi, rax
	mov	qword ptr [rbp - 48], rsi       ## 8-byte Spill
	call	__ZNSt3__1L7forwardIRKcEEOT_RNS_16remove_referenceIS3_E4typeE
	mov	rdi, qword ptr [rbp - 40]       ## 8-byte Reload
	mov	rsi, qword ptr [rbp - 48]       ## 8-byte Reload
	mov	rdx, rax
	call	__ZNSt3__19allocatorIcE9constructIcJRKcEEEvPT_DpOT0_
	add	rsp, 48
	pop	rbp
	ret
	.cfi_endproc
                                        ## -- End function
	.p2align	4, 0x90                         ## -- Begin function _ZNSt3__1L7forwardIRKcEEOT_RNS_16remove_referenceIS3_E4typeE
__ZNSt3__1L7forwardIRKcEEOT_RNS_16remove_referenceIS3_E4typeE: ## @_ZNSt3__1L7forwardIRKcEEOT_RNS_16remove_referenceIS3_E4typeE
	.cfi_startproc
## %bb.0:
	push	rbp
	.cfi_def_cfa_offset 16
	.cfi_offset rbp, -16
	mov	rbp, rsp
	.cfi_def_cfa_register rbp
	mov	qword ptr [rbp - 8], rdi
	mov	rax, qword ptr [rbp - 8]
	pop	rbp
	ret
	.cfi_endproc
                                        ## -- End function
	.p2align	4, 0x90                         ## -- Begin function _ZNSt3__19allocatorIcE9constructIcJRKcEEEvPT_DpOT0_
__ZNSt3__19allocatorIcE9constructIcJRKcEEEvPT_DpOT0_: ## @_ZNSt3__19allocatorIcE9constructIcJRKcEEEvPT_DpOT0_
	.cfi_startproc
## %bb.0:
	push	rbp
	.cfi_def_cfa_offset 16
	.cfi_offset rbp, -16
	mov	rbp, rsp
	.cfi_def_cfa_register rbp
	sub	rsp, 32
	mov	qword ptr [rbp - 8], rdi
	mov	qword ptr [rbp - 16], rsi
	mov	qword ptr [rbp - 24], rdx
	mov	rax, qword ptr [rbp - 16]
	mov	rdi, qword ptr [rbp - 24]
	mov	qword ptr [rbp - 32], rax       ## 8-byte Spill
	call	__ZNSt3__1L7forwardIRKcEEOT_RNS_16remove_referenceIS3_E4typeE
	mov	cl, byte ptr [rax]
	mov	rax, qword ptr [rbp - 32]       ## 8-byte Reload
	mov	byte ptr [rax], cl
	add	rsp, 32
	pop	rbp
	ret
	.cfi_endproc
                                        ## -- End function
	.globl	__ZNSt3__16vectorIcNS_9allocatorIcEEE21_ConstructTransactionD2Ev ## -- Begin function _ZNSt3__16vectorIcNS_9allocatorIcEEE21_ConstructTransactionD2Ev
	.weak_def_can_be_hidden	__ZNSt3__16vectorIcNS_9allocatorIcEEE21_ConstructTransactionD2Ev
	.p2align	4, 0x90
__ZNSt3__16vectorIcNS_9allocatorIcEEE21_ConstructTransactionD2Ev: ## @_ZNSt3__16vectorIcNS_9allocatorIcEEE21_ConstructTransactionD2Ev
	.cfi_startproc
## %bb.0:
	push	rbp
	.cfi_def_cfa_offset 16
	.cfi_offset rbp, -16
	mov	rbp, rsp
	.cfi_def_cfa_register rbp
	mov	qword ptr [rbp - 8], rdi
	mov	rax, qword ptr [rbp - 8]
	mov	rcx, qword ptr [rax + 8]
	mov	rax, qword ptr [rax]
	mov	qword ptr [rax + 8], rcx
	pop	rbp
	ret
	.cfi_endproc
                                        ## -- End function
	.p2align	4, 0x90                         ## -- Begin function _ZNSt3__113__vector_baseIcNS_9allocatorIcEEE5clearEv
__ZNSt3__113__vector_baseIcNS_9allocatorIcEEE5clearEv: ## @_ZNSt3__113__vector_baseIcNS_9allocatorIcEEE5clearEv
	.cfi_startproc
## %bb.0:
	push	rbp
	.cfi_def_cfa_offset 16
	.cfi_offset rbp, -16
	mov	rbp, rsp
	.cfi_def_cfa_register rbp
	sub	rsp, 16
	mov	qword ptr [rbp - 8], rdi
	mov	rax, qword ptr [rbp - 8]
	mov	rsi, qword ptr [rax]
	mov	rdi, rax
	call	__ZNSt3__113__vector_baseIcNS_9allocatorIcEEE17__destruct_at_endEPc
	add	rsp, 16
	pop	rbp
	ret
	.cfi_endproc
                                        ## -- End function
	.p2align	4, 0x90                         ## -- Begin function _ZNSt3__116allocator_traitsINS_9allocatorIcEEE10deallocateERS2_Pcm
__ZNSt3__116allocator_traitsINS_9allocatorIcEEE10deallocateERS2_Pcm: ## @_ZNSt3__116allocator_traitsINS_9allocatorIcEEE10deallocateERS2_Pcm
	.cfi_startproc
## %bb.0:
	push	rbp
	.cfi_def_cfa_offset 16
	.cfi_offset rbp, -16
	mov	rbp, rsp
	.cfi_def_cfa_register rbp
	sub	rsp, 32
	mov	qword ptr [rbp - 8], rdi
	mov	qword ptr [rbp - 16], rsi
	mov	qword ptr [rbp - 24], rdx
	mov	rdi, qword ptr [rbp - 8]
	mov	rsi, qword ptr [rbp - 16]
	mov	rdx, qword ptr [rbp - 24]
	call	__ZNSt3__19allocatorIcE10deallocateEPcm
	add	rsp, 32
	pop	rbp
	ret
	.cfi_endproc
                                        ## -- End function
	.p2align	4, 0x90                         ## -- Begin function _ZNSt3__113__vector_baseIcNS_9allocatorIcEEE17__destruct_at_endEPc
__ZNSt3__113__vector_baseIcNS_9allocatorIcEEE17__destruct_at_endEPc: ## @_ZNSt3__113__vector_baseIcNS_9allocatorIcEEE17__destruct_at_endEPc
Lfunc_begin7:
	.cfi_startproc
	.cfi_personality 155, ___gxx_personality_v0
	.cfi_lsda 16, Lexception7
## %bb.0:
	push	rbp
	.cfi_def_cfa_offset 16
	.cfi_offset rbp, -16
	mov	rbp, rsp
	.cfi_def_cfa_register rbp
	sub	rsp, 48
	mov	qword ptr [rbp - 8], rdi
	mov	qword ptr [rbp - 16], rsi
	mov	rax, qword ptr [rbp - 8]
	mov	rcx, qword ptr [rax + 8]
	mov	qword ptr [rbp - 24], rcx
	mov	qword ptr [rbp - 32], rax       ## 8-byte Spill
LBB69_1:                                ## =>This Inner Loop Header: Depth=1
	mov	rax, qword ptr [rbp - 16]
	cmp	rax, qword ptr [rbp - 24]
	je	LBB69_4
## %bb.2:                               ##   in Loop: Header=BB69_1 Depth=1
	mov	rdi, qword ptr [rbp - 32]       ## 8-byte Reload
	call	__ZNSt3__113__vector_baseIcNS_9allocatorIcEEE7__allocEv
	mov	rcx, qword ptr [rbp - 24]
	dec	rcx
	mov	qword ptr [rbp - 24], rcx
	mov	rdi, rcx
	mov	qword ptr [rbp - 40], rax       ## 8-byte Spill
	call	__ZNSt3__1L12__to_addressIcEEPT_S2_
Ltmp76:
	mov	rdi, qword ptr [rbp - 40]       ## 8-byte Reload
	mov	rsi, rax
	call	__ZNSt3__116allocator_traitsINS_9allocatorIcEEE7destroyIcEEvRS2_PT_
Ltmp77:
	jmp	LBB69_3
LBB69_3:                                ##   in Loop: Header=BB69_1 Depth=1
	jmp	LBB69_1
LBB69_4:
	mov	rax, qword ptr [rbp - 16]
	mov	rcx, qword ptr [rbp - 32]       ## 8-byte Reload
	mov	qword ptr [rcx + 8], rax
	add	rsp, 48
	pop	rbp
	ret
LBB69_5:
Ltmp78:
	mov	rdi, rax
	mov	qword ptr [rbp - 48], rdx       ## 8-byte Spill
	call	___clang_call_terminate
Lfunc_end7:
	.cfi_endproc
	.section	__TEXT,__gcc_except_tab
	.p2align	2
GCC_except_table69:
Lexception7:
	.byte	255                             ## @LPStart Encoding = omit
	.byte	155                             ## @TType Encoding = indirect pcrel sdata4
	.uleb128 Lttbase2-Lttbaseref2
Lttbaseref2:
	.byte	1                               ## Call site Encoding = uleb128
	.uleb128 Lcst_end7-Lcst_begin7
Lcst_begin7:
	.uleb128 Ltmp76-Lfunc_begin7            ## >> Call Site 1 <<
	.uleb128 Ltmp77-Ltmp76                  ##   Call between Ltmp76 and Ltmp77
	.uleb128 Ltmp78-Lfunc_begin7            ##     jumps to Ltmp78
	.byte	1                               ##   On action: 1
Lcst_end7:
	.byte	1                               ## >> Action Record 1 <<
                                        ##   Catch TypeInfo 1
	.byte	0                               ##   No further actions
	.p2align	2
                                        ## >> Catch TypeInfos <<
	.long	0                               ## TypeInfo 1
Lttbase2:
	.p2align	2
                                        ## -- End function
	.section	__TEXT,__text,regular,pure_instructions
	.p2align	4, 0x90                         ## -- Begin function _ZNSt3__116allocator_traitsINS_9allocatorIcEEE7destroyIcEEvRS2_PT_
__ZNSt3__116allocator_traitsINS_9allocatorIcEEE7destroyIcEEvRS2_PT_: ## @_ZNSt3__116allocator_traitsINS_9allocatorIcEEE7destroyIcEEvRS2_PT_
	.cfi_startproc
## %bb.0:
	push	rbp
	.cfi_def_cfa_offset 16
	.cfi_offset rbp, -16
	mov	rbp, rsp
	.cfi_def_cfa_register rbp
	sub	rsp, 32
	mov	qword ptr [rbp - 8], rdi
	mov	qword ptr [rbp - 16], rsi
	mov	rdi, qword ptr [rbp - 8]
	mov	rsi, qword ptr [rbp - 16]
	call	__ZNSt3__116allocator_traitsINS_9allocatorIcEEE9__destroyIcEEvNS_17integral_constantIbLb1EEERS2_PT_
	add	rsp, 32
	pop	rbp
	ret
	.cfi_endproc
                                        ## -- End function
	.p2align	4, 0x90                         ## -- Begin function _ZNSt3__116allocator_traitsINS_9allocatorIcEEE9__destroyIcEEvNS_17integral_constantIbLb1EEERS2_PT_
__ZNSt3__116allocator_traitsINS_9allocatorIcEEE9__destroyIcEEvNS_17integral_constantIbLb1EEERS2_PT_: ## @_ZNSt3__116allocator_traitsINS_9allocatorIcEEE9__destroyIcEEvNS_17integral_constantIbLb1EEERS2_PT_
	.cfi_startproc
## %bb.0:
	push	rbp
	.cfi_def_cfa_offset 16
	.cfi_offset rbp, -16
	mov	rbp, rsp
	.cfi_def_cfa_register rbp
	sub	rsp, 32
	mov	qword ptr [rbp - 16], rdi
	mov	qword ptr [rbp - 24], rsi
	mov	rdi, qword ptr [rbp - 16]
	mov	rsi, qword ptr [rbp - 24]
	call	__ZNSt3__19allocatorIcE7destroyEPc
	add	rsp, 32
	pop	rbp
	ret
	.cfi_endproc
                                        ## -- End function
	.p2align	4, 0x90                         ## -- Begin function _ZNSt3__19allocatorIcE7destroyEPc
__ZNSt3__19allocatorIcE7destroyEPc:     ## @_ZNSt3__19allocatorIcE7destroyEPc
	.cfi_startproc
## %bb.0:
	push	rbp
	.cfi_def_cfa_offset 16
	.cfi_offset rbp, -16
	mov	rbp, rsp
	.cfi_def_cfa_register rbp
	mov	qword ptr [rbp - 8], rdi
	mov	qword ptr [rbp - 16], rsi
	pop	rbp
	ret
	.cfi_endproc
                                        ## -- End function
	.p2align	4, 0x90                         ## -- Begin function _ZNSt3__19allocatorIcE10deallocateEPcm
__ZNSt3__19allocatorIcE10deallocateEPcm: ## @_ZNSt3__19allocatorIcE10deallocateEPcm
Lfunc_begin8:
	.cfi_startproc
	.cfi_personality 155, ___gxx_personality_v0
	.cfi_lsda 16, Lexception8
## %bb.0:
	push	rbp
	.cfi_def_cfa_offset 16
	.cfi_offset rbp, -16
	mov	rbp, rsp
	.cfi_def_cfa_register rbp
	sub	rsp, 32
	mov	qword ptr [rbp - 8], rdi
	mov	qword ptr [rbp - 16], rsi
	mov	qword ptr [rbp - 24], rdx
	mov	rdi, qword ptr [rbp - 16]
	mov	rsi, qword ptr [rbp - 24]
Ltmp79:
	mov	edx, 1
	call	__ZNSt3__1L19__libcpp_deallocateEPvmm
Ltmp80:
	jmp	LBB73_1
LBB73_1:
	add	rsp, 32
	pop	rbp
	ret
LBB73_2:
Ltmp81:
	mov	rdi, rax
	mov	qword ptr [rbp - 32], rdx       ## 8-byte Spill
	call	___clang_call_terminate
Lfunc_end8:
	.cfi_endproc
	.section	__TEXT,__gcc_except_tab
	.p2align	2
GCC_except_table73:
Lexception8:
	.byte	255                             ## @LPStart Encoding = omit
	.byte	155                             ## @TType Encoding = indirect pcrel sdata4
	.uleb128 Lttbase3-Lttbaseref3
Lttbaseref3:
	.byte	1                               ## Call site Encoding = uleb128
	.uleb128 Lcst_end8-Lcst_begin8
Lcst_begin8:
	.uleb128 Ltmp79-Lfunc_begin8            ## >> Call Site 1 <<
	.uleb128 Ltmp80-Ltmp79                  ##   Call between Ltmp79 and Ltmp80
	.uleb128 Ltmp81-Lfunc_begin8            ##     jumps to Ltmp81
	.byte	1                               ##   On action: 1
Lcst_end8:
	.byte	1                               ## >> Action Record 1 <<
                                        ##   Catch TypeInfo 1
	.byte	0                               ##   No further actions
	.p2align	2
                                        ## >> Catch TypeInfos <<
	.long	0                               ## TypeInfo 1
Lttbase3:
	.p2align	2
                                        ## -- End function
	.section	__TEXT,__text,regular,pure_instructions
	.p2align	4, 0x90                         ## -- Begin function _ZNSt3__1L19__libcpp_deallocateEPvmm
__ZNSt3__1L19__libcpp_deallocateEPvmm:  ## @_ZNSt3__1L19__libcpp_deallocateEPvmm
	.cfi_startproc
## %bb.0:
	push	rbp
	.cfi_def_cfa_offset 16
	.cfi_offset rbp, -16
	mov	rbp, rsp
	.cfi_def_cfa_register rbp
	sub	rsp, 32
	mov	qword ptr [rbp - 8], rdi
	mov	qword ptr [rbp - 16], rsi
	mov	qword ptr [rbp - 24], rdx
	mov	rdi, qword ptr [rbp - 8]
	mov	rsi, qword ptr [rbp - 16]
	mov	rdx, qword ptr [rbp - 24]
	call	__ZNSt3__117_DeallocateCaller33__do_deallocate_handle_size_alignEPvmm
	add	rsp, 32
	pop	rbp
	ret
	.cfi_endproc
                                        ## -- End function
	.p2align	4, 0x90                         ## -- Begin function _ZNSt3__117_DeallocateCaller33__do_deallocate_handle_size_alignEPvmm
__ZNSt3__117_DeallocateCaller33__do_deallocate_handle_size_alignEPvmm: ## @_ZNSt3__117_DeallocateCaller33__do_deallocate_handle_size_alignEPvmm
	.cfi_startproc
## %bb.0:
	push	rbp
	.cfi_def_cfa_offset 16
	.cfi_offset rbp, -16
	mov	rbp, rsp
	.cfi_def_cfa_register rbp
	sub	rsp, 32
	mov	qword ptr [rbp - 8], rdi
	mov	qword ptr [rbp - 16], rsi
	mov	qword ptr [rbp - 24], rdx
	mov	rdi, qword ptr [rbp - 24]
	call	__ZNSt3__1L24__is_overaligned_for_newEm
	test	al, 1
	jne	LBB75_1
	jmp	LBB75_2
LBB75_1:
	mov	rax, qword ptr [rbp - 24]
	mov	qword ptr [rbp - 32], rax
	mov	rdi, qword ptr [rbp - 8]
	mov	rsi, qword ptr [rbp - 16]
	mov	rdx, qword ptr [rbp - 32]
	call	__ZNSt3__117_DeallocateCaller27__do_deallocate_handle_sizeEPvmSt11align_val_t
	jmp	LBB75_3
LBB75_2:
	mov	rdi, qword ptr [rbp - 8]
	mov	rsi, qword ptr [rbp - 16]
	call	__ZNSt3__117_DeallocateCaller27__do_deallocate_handle_sizeEPvm
LBB75_3:
	add	rsp, 32
	pop	rbp
	ret
	.cfi_endproc
                                        ## -- End function
	.globl	__ZNSt3__117_DeallocateCaller27__do_deallocate_handle_sizeEPvmSt11align_val_t ## -- Begin function _ZNSt3__117_DeallocateCaller27__do_deallocate_handle_sizeEPvmSt11align_val_t
	.weak_definition	__ZNSt3__117_DeallocateCaller27__do_deallocate_handle_sizeEPvmSt11align_val_t
	.p2align	4, 0x90
__ZNSt3__117_DeallocateCaller27__do_deallocate_handle_sizeEPvmSt11align_val_t: ## @_ZNSt3__117_DeallocateCaller27__do_deallocate_handle_sizeEPvmSt11align_val_t
	.cfi_startproc
## %bb.0:
	push	rbp
	.cfi_def_cfa_offset 16
	.cfi_offset rbp, -16
	mov	rbp, rsp
	.cfi_def_cfa_register rbp
	sub	rsp, 32
	mov	qword ptr [rbp - 8], rdi
	mov	qword ptr [rbp - 16], rsi
	mov	qword ptr [rbp - 24], rdx
	mov	rdi, qword ptr [rbp - 8]
	mov	rsi, qword ptr [rbp - 24]
	call	__ZNSt3__117_DeallocateCaller9__do_callISt11align_val_tEEvPvT_
	add	rsp, 32
	pop	rbp
	ret
	.cfi_endproc
                                        ## -- End function
	.globl	__ZNSt3__117_DeallocateCaller27__do_deallocate_handle_sizeEPvm ## -- Begin function _ZNSt3__117_DeallocateCaller27__do_deallocate_handle_sizeEPvm
	.weak_definition	__ZNSt3__117_DeallocateCaller27__do_deallocate_handle_sizeEPvm
	.p2align	4, 0x90
__ZNSt3__117_DeallocateCaller27__do_deallocate_handle_sizeEPvm: ## @_ZNSt3__117_DeallocateCaller27__do_deallocate_handle_sizeEPvm
	.cfi_startproc
## %bb.0:
	push	rbp
	.cfi_def_cfa_offset 16
	.cfi_offset rbp, -16
	mov	rbp, rsp
	.cfi_def_cfa_register rbp
	sub	rsp, 16
	mov	qword ptr [rbp - 8], rdi
	mov	qword ptr [rbp - 16], rsi
	mov	rdi, qword ptr [rbp - 8]
	call	__ZNSt3__117_DeallocateCaller9__do_callEPv
	add	rsp, 16
	pop	rbp
	ret
	.cfi_endproc
                                        ## -- End function
	.globl	__ZNSt3__117_DeallocateCaller9__do_callISt11align_val_tEEvPvT_ ## -- Begin function _ZNSt3__117_DeallocateCaller9__do_callISt11align_val_tEEvPvT_
	.weak_definition	__ZNSt3__117_DeallocateCaller9__do_callISt11align_val_tEEvPvT_
	.p2align	4, 0x90
__ZNSt3__117_DeallocateCaller9__do_callISt11align_val_tEEvPvT_: ## @_ZNSt3__117_DeallocateCaller9__do_callISt11align_val_tEEvPvT_
	.cfi_startproc
## %bb.0:
	push	rbp
	.cfi_def_cfa_offset 16
	.cfi_offset rbp, -16
	mov	rbp, rsp
	.cfi_def_cfa_register rbp
	sub	rsp, 16
	mov	qword ptr [rbp - 8], rdi
	mov	qword ptr [rbp - 16], rsi
	mov	rdi, qword ptr [rbp - 8]
	mov	rsi, qword ptr [rbp - 16]
	call	__ZdlPvSt11align_val_t
	add	rsp, 16
	pop	rbp
	ret
	.cfi_endproc
                                        ## -- End function
	.globl	__ZNSt3__117_DeallocateCaller9__do_callEPv ## -- Begin function _ZNSt3__117_DeallocateCaller9__do_callEPv
	.weak_definition	__ZNSt3__117_DeallocateCaller9__do_callEPv
	.p2align	4, 0x90
__ZNSt3__117_DeallocateCaller9__do_callEPv: ## @_ZNSt3__117_DeallocateCaller9__do_callEPv
	.cfi_startproc
## %bb.0:
	push	rbp
	.cfi_def_cfa_offset 16
	.cfi_offset rbp, -16
	mov	rbp, rsp
	.cfi_def_cfa_register rbp
	sub	rsp, 16
	mov	qword ptr [rbp - 8], rdi
	mov	rdi, qword ptr [rbp - 8]
	call	__ZdlPv
	add	rsp, 16
	pop	rbp
	ret
	.cfi_endproc
                                        ## -- End function
	.globl	__ZNSt3__16vectorINS0_IcNS_9allocatorIcEEEENS1_IS3_EEEC2EmRKS3_ ## -- Begin function _ZNSt3__16vectorINS0_IcNS_9allocatorIcEEEENS1_IS3_EEEC2EmRKS3_
	.weak_def_can_be_hidden	__ZNSt3__16vectorINS0_IcNS_9allocatorIcEEEENS1_IS3_EEEC2EmRKS3_
	.p2align	4, 0x90
__ZNSt3__16vectorINS0_IcNS_9allocatorIcEEEENS1_IS3_EEEC2EmRKS3_: ## @_ZNSt3__16vectorINS0_IcNS_9allocatorIcEEEENS1_IS3_EEEC2EmRKS3_
Lfunc_begin9:
	.cfi_startproc
	.cfi_personality 155, ___gxx_personality_v0
	.cfi_lsda 16, Lexception9
## %bb.0:
	push	rbp
	.cfi_def_cfa_offset 16
	.cfi_offset rbp, -16
	mov	rbp, rsp
	.cfi_def_cfa_register rbp
	sub	rsp, 48
	mov	qword ptr [rbp - 8], rdi
	mov	qword ptr [rbp - 16], rsi
	mov	qword ptr [rbp - 24], rdx
	mov	rax, qword ptr [rbp - 8]
	mov	rcx, rax
	mov	rdi, rcx
	mov	qword ptr [rbp - 48], rax       ## 8-byte Spill
	call	__ZNSt3__113__vector_baseINS_6vectorIcNS_9allocatorIcEEEENS2_IS4_EEEC2Ev
	cmp	qword ptr [rbp - 16], 0
	jbe	LBB80_5
## %bb.1:
	mov	rsi, qword ptr [rbp - 16]
Ltmp82:
	mov	rdi, qword ptr [rbp - 48]       ## 8-byte Reload
	call	__ZNSt3__16vectorINS0_IcNS_9allocatorIcEEEENS1_IS3_EEE11__vallocateEm
Ltmp83:
	jmp	LBB80_2
LBB80_2:
	mov	rsi, qword ptr [rbp - 16]
	mov	rdx, qword ptr [rbp - 24]
Ltmp84:
	mov	rdi, qword ptr [rbp - 48]       ## 8-byte Reload
	call	__ZNSt3__16vectorINS0_IcNS_9allocatorIcEEEENS1_IS3_EEE18__construct_at_endEmRKS3_
Ltmp85:
	jmp	LBB80_3
LBB80_3:
	jmp	LBB80_5
LBB80_4:
Ltmp86:
                                        ## kill: def $edx killed $edx killed $rdx
	mov	qword ptr [rbp - 32], rax
	mov	dword ptr [rbp - 36], edx
	mov	rax, qword ptr [rbp - 48]       ## 8-byte Reload
	mov	rdi, rax
	call	__ZNSt3__113__vector_baseINS_6vectorIcNS_9allocatorIcEEEENS2_IS4_EEED2Ev
	jmp	LBB80_6
LBB80_5:
	add	rsp, 48
	pop	rbp
	ret
LBB80_6:
	mov	rdi, qword ptr [rbp - 32]
	call	__Unwind_Resume
	ud2
Lfunc_end9:
	.cfi_endproc
	.section	__TEXT,__gcc_except_tab
	.p2align	2
GCC_except_table80:
Lexception9:
	.byte	255                             ## @LPStart Encoding = omit
	.byte	255                             ## @TType Encoding = omit
	.byte	1                               ## Call site Encoding = uleb128
	.uleb128 Lcst_end9-Lcst_begin9
Lcst_begin9:
	.uleb128 Ltmp82-Lfunc_begin9            ## >> Call Site 1 <<
	.uleb128 Ltmp85-Ltmp82                  ##   Call between Ltmp82 and Ltmp85
	.uleb128 Ltmp86-Lfunc_begin9            ##     jumps to Ltmp86
	.byte	0                               ##   On action: cleanup
	.uleb128 Ltmp85-Lfunc_begin9            ## >> Call Site 2 <<
	.uleb128 Lfunc_end9-Ltmp85              ##   Call between Ltmp85 and Lfunc_end9
	.byte	0                               ##     has no landing pad
	.byte	0                               ##   On action: cleanup
Lcst_end9:
	.p2align	2
                                        ## -- End function
	.section	__TEXT,__text,regular,pure_instructions
	.p2align	4, 0x90                         ## -- Begin function _ZNSt3__113__vector_baseINS_6vectorIcNS_9allocatorIcEEEENS2_IS4_EEEC2Ev
__ZNSt3__113__vector_baseINS_6vectorIcNS_9allocatorIcEEEENS2_IS4_EEEC2Ev: ## @_ZNSt3__113__vector_baseINS_6vectorIcNS_9allocatorIcEEEENS2_IS4_EEEC2Ev
Lfunc_begin10:
	.cfi_startproc
	.cfi_personality 155, ___gxx_personality_v0
	.cfi_lsda 16, Lexception10
## %bb.0:
	push	rbp
	.cfi_def_cfa_offset 16
	.cfi_offset rbp, -16
	mov	rbp, rsp
	.cfi_def_cfa_register rbp
	sub	rsp, 48
	mov	qword ptr [rbp - 8], rdi
	mov	rax, qword ptr [rbp - 8]
	mov	rdi, rax
	mov	qword ptr [rbp - 32], rax       ## 8-byte Spill
	call	__ZNSt3__120__vector_base_commonILb1EEC2Ev
	mov	rax, qword ptr [rbp - 32]       ## 8-byte Reload
	mov	qword ptr [rax], 0
	mov	qword ptr [rax + 8], 0
	add	rax, 16
	mov	qword ptr [rbp - 16], 0
Ltmp87:
	lea	rsi, [rbp - 16]
	lea	rdx, [rbp - 24]
	mov	rdi, rax
	call	__ZNSt3__117__compressed_pairIPNS_6vectorIcNS_9allocatorIcEEEENS2_IS4_EEEC1IDnNS_18__default_init_tagEEEOT_OT0_
Ltmp88:
	jmp	LBB81_1
LBB81_1:
	add	rsp, 48
	pop	rbp
	ret
LBB81_2:
Ltmp89:
	mov	rdi, rax
	mov	qword ptr [rbp - 40], rdx       ## 8-byte Spill
	call	___clang_call_terminate
Lfunc_end10:
	.cfi_endproc
	.section	__TEXT,__gcc_except_tab
	.p2align	2
GCC_except_table81:
Lexception10:
	.byte	255                             ## @LPStart Encoding = omit
	.byte	155                             ## @TType Encoding = indirect pcrel sdata4
	.uleb128 Lttbase4-Lttbaseref4
Lttbaseref4:
	.byte	1                               ## Call site Encoding = uleb128
	.uleb128 Lcst_end10-Lcst_begin10
Lcst_begin10:
	.uleb128 Ltmp87-Lfunc_begin10           ## >> Call Site 1 <<
	.uleb128 Ltmp88-Ltmp87                  ##   Call between Ltmp87 and Ltmp88
	.uleb128 Ltmp89-Lfunc_begin10           ##     jumps to Ltmp89
	.byte	1                               ##   On action: 1
Lcst_end10:
	.byte	1                               ## >> Action Record 1 <<
                                        ##   Catch TypeInfo 1
	.byte	0                               ##   No further actions
	.p2align	2
                                        ## >> Catch TypeInfos <<
	.long	0                               ## TypeInfo 1
Lttbase4:
	.p2align	2
                                        ## -- End function
	.section	__TEXT,__text,regular,pure_instructions
	.globl	__ZNSt3__16vectorINS0_IcNS_9allocatorIcEEEENS1_IS3_EEE11__vallocateEm ## -- Begin function _ZNSt3__16vectorINS0_IcNS_9allocatorIcEEEENS1_IS3_EEE11__vallocateEm
	.weak_definition	__ZNSt3__16vectorINS0_IcNS_9allocatorIcEEEENS1_IS3_EEE11__vallocateEm
	.p2align	4, 0x90
__ZNSt3__16vectorINS0_IcNS_9allocatorIcEEEENS1_IS3_EEE11__vallocateEm: ## @_ZNSt3__16vectorINS0_IcNS_9allocatorIcEEEENS1_IS3_EEE11__vallocateEm
	.cfi_startproc
## %bb.0:
	push	rbp
	.cfi_def_cfa_offset 16
	.cfi_offset rbp, -16
	mov	rbp, rsp
	.cfi_def_cfa_register rbp
	sub	rsp, 48
	mov	qword ptr [rbp - 8], rdi
	mov	qword ptr [rbp - 16], rsi
	mov	rax, qword ptr [rbp - 8]
	mov	rcx, qword ptr [rbp - 16]
	mov	rdi, rax
	mov	qword ptr [rbp - 24], rax       ## 8-byte Spill
	mov	qword ptr [rbp - 32], rcx       ## 8-byte Spill
	call	__ZNKSt3__16vectorINS0_IcNS_9allocatorIcEEEENS1_IS3_EEE8max_sizeEv
	mov	rcx, qword ptr [rbp - 32]       ## 8-byte Reload
	cmp	rcx, rax
	jbe	LBB82_2
## %bb.1:
	mov	rdi, qword ptr [rbp - 24]       ## 8-byte Reload
	call	__ZNKSt3__120__vector_base_commonILb1EE20__throw_length_errorEv
LBB82_2:
	mov	rax, qword ptr [rbp - 24]       ## 8-byte Reload
	mov	rdi, rax
	call	__ZNSt3__113__vector_baseINS_6vectorIcNS_9allocatorIcEEEENS2_IS4_EEE7__allocEv
	mov	rsi, qword ptr [rbp - 16]
	mov	rdi, rax
	call	__ZNSt3__116allocator_traitsINS_9allocatorINS_6vectorIcNS1_IcEEEEEEE8allocateERS5_m
	mov	rcx, qword ptr [rbp - 24]       ## 8-byte Reload
	mov	qword ptr [rcx + 8], rax
	mov	qword ptr [rcx], rax
	mov	rax, qword ptr [rcx]
	imul	rdx, qword ptr [rbp - 16], 24
	add	rax, rdx
	mov	rdi, rcx
	mov	qword ptr [rbp - 40], rax       ## 8-byte Spill
	call	__ZNSt3__113__vector_baseINS_6vectorIcNS_9allocatorIcEEEENS2_IS4_EEE9__end_capEv
	xor	r8d, r8d
	mov	esi, r8d
	mov	rcx, qword ptr [rbp - 40]       ## 8-byte Reload
	mov	qword ptr [rax], rcx
	mov	rdi, qword ptr [rbp - 24]       ## 8-byte Reload
	call	__ZNKSt3__16vectorINS0_IcNS_9allocatorIcEEEENS1_IS3_EEE14__annotate_newEm
	add	rsp, 48
	pop	rbp
	ret
	.cfi_endproc
                                        ## -- End function
	.p2align	4, 0x90                         ## -- Begin function _ZNSt3__16vectorINS0_IcNS_9allocatorIcEEEENS1_IS3_EEE18__construct_at_endEmRKS3_
__ZNSt3__16vectorINS0_IcNS_9allocatorIcEEEENS1_IS3_EEE18__construct_at_endEmRKS3_: ## @_ZNSt3__16vectorINS0_IcNS_9allocatorIcEEEENS1_IS3_EEE18__construct_at_endEmRKS3_
Lfunc_begin11:
	.cfi_startproc
	.cfi_personality 155, ___gxx_personality_v0
	.cfi_lsda 16, Lexception11
## %bb.0:
	push	rbp
	.cfi_def_cfa_offset 16
	.cfi_offset rbp, -16
	mov	rbp, rsp
	.cfi_def_cfa_register rbp
	sub	rsp, 96
	mov	qword ptr [rbp - 8], rdi
	mov	qword ptr [rbp - 16], rsi
	mov	qword ptr [rbp - 24], rdx
	mov	rax, qword ptr [rbp - 8]
	mov	rdx, qword ptr [rbp - 16]
	lea	rdi, [rbp - 48]
	mov	rsi, rax
	mov	qword ptr [rbp - 88], rax       ## 8-byte Spill
	call	__ZNSt3__16vectorINS0_IcNS_9allocatorIcEEEENS1_IS3_EEE21_ConstructTransactionC1ERS5_m
	mov	rax, qword ptr [rbp - 32]
	mov	qword ptr [rbp - 56], rax
	mov	rax, qword ptr [rbp - 40]
	mov	qword ptr [rbp - 64], rax
LBB83_1:                                ## =>This Inner Loop Header: Depth=1
	mov	rax, qword ptr [rbp - 64]
	cmp	rax, qword ptr [rbp - 56]
	je	LBB83_6
## %bb.2:                               ##   in Loop: Header=BB83_1 Depth=1
	mov	rdi, qword ptr [rbp - 88]       ## 8-byte Reload
	call	__ZNSt3__113__vector_baseINS_6vectorIcNS_9allocatorIcEEEENS2_IS4_EEE7__allocEv
	mov	rdi, qword ptr [rbp - 64]
	mov	qword ptr [rbp - 96], rax       ## 8-byte Spill
	call	__ZNSt3__1L12__to_addressINS_6vectorIcNS_9allocatorIcEEEEEEPT_S6_
	mov	rdx, qword ptr [rbp - 24]
Ltmp90:
	mov	rdi, qword ptr [rbp - 96]       ## 8-byte Reload
	mov	rsi, rax
	call	__ZNSt3__116allocator_traitsINS_9allocatorINS_6vectorIcNS1_IcEEEEEEE9constructIS4_JRKS4_EEEvRS5_PT_DpOT0_
Ltmp91:
	jmp	LBB83_3
LBB83_3:                                ##   in Loop: Header=BB83_1 Depth=1
	jmp	LBB83_4
LBB83_4:                                ##   in Loop: Header=BB83_1 Depth=1
	mov	rax, qword ptr [rbp - 64]
	add	rax, 24
	mov	qword ptr [rbp - 64], rax
	mov	rax, qword ptr [rbp - 64]
	mov	qword ptr [rbp - 40], rax
	jmp	LBB83_1
LBB83_5:
Ltmp92:
                                        ## kill: def $edx killed $edx killed $rdx
	mov	qword ptr [rbp - 72], rax
	mov	dword ptr [rbp - 76], edx
	lea	rdi, [rbp - 48]
	call	__ZNSt3__16vectorINS0_IcNS_9allocatorIcEEEENS1_IS3_EEE21_ConstructTransactionD1Ev
	jmp	LBB83_7
LBB83_6:
	lea	rdi, [rbp - 48]
	call	__ZNSt3__16vectorINS0_IcNS_9allocatorIcEEEENS1_IS3_EEE21_ConstructTransactionD1Ev
	add	rsp, 96
	pop	rbp
	ret
LBB83_7:
	mov	rdi, qword ptr [rbp - 72]
	call	__Unwind_Resume
	ud2
Lfunc_end11:
	.cfi_endproc
	.section	__TEXT,__gcc_except_tab
	.p2align	2
GCC_except_table83:
Lexception11:
	.byte	255                             ## @LPStart Encoding = omit
	.byte	255                             ## @TType Encoding = omit
	.byte	1                               ## Call site Encoding = uleb128
	.uleb128 Lcst_end11-Lcst_begin11
Lcst_begin11:
	.uleb128 Lfunc_begin11-Lfunc_begin11    ## >> Call Site 1 <<
	.uleb128 Ltmp90-Lfunc_begin11           ##   Call between Lfunc_begin11 and Ltmp90
	.byte	0                               ##     has no landing pad
	.byte	0                               ##   On action: cleanup
	.uleb128 Ltmp90-Lfunc_begin11           ## >> Call Site 2 <<
	.uleb128 Ltmp91-Ltmp90                  ##   Call between Ltmp90 and Ltmp91
	.uleb128 Ltmp92-Lfunc_begin11           ##     jumps to Ltmp92
	.byte	0                               ##   On action: cleanup
	.uleb128 Ltmp91-Lfunc_begin11           ## >> Call Site 3 <<
	.uleb128 Lfunc_end11-Ltmp91             ##   Call between Ltmp91 and Lfunc_end11
	.byte	0                               ##     has no landing pad
	.byte	0                               ##   On action: cleanup
Lcst_end11:
	.p2align	2
                                        ## -- End function
	.section	__TEXT,__text,regular,pure_instructions
	.globl	__ZNSt3__113__vector_baseINS_6vectorIcNS_9allocatorIcEEEENS2_IS4_EEED2Ev ## -- Begin function _ZNSt3__113__vector_baseINS_6vectorIcNS_9allocatorIcEEEENS2_IS4_EEED2Ev
	.weak_def_can_be_hidden	__ZNSt3__113__vector_baseINS_6vectorIcNS_9allocatorIcEEEENS2_IS4_EEED2Ev
	.p2align	4, 0x90
__ZNSt3__113__vector_baseINS_6vectorIcNS_9allocatorIcEEEENS2_IS4_EEED2Ev: ## @_ZNSt3__113__vector_baseINS_6vectorIcNS_9allocatorIcEEEENS2_IS4_EEED2Ev
	.cfi_startproc
## %bb.0:
	push	rbp
	.cfi_def_cfa_offset 16
	.cfi_offset rbp, -16
	mov	rbp, rsp
	.cfi_def_cfa_register rbp
	sub	rsp, 32
	mov	qword ptr [rbp - 8], rdi
	mov	rax, qword ptr [rbp - 8]
	cmp	qword ptr [rax], 0
	mov	qword ptr [rbp - 16], rax       ## 8-byte Spill
	je	LBB84_2
## %bb.1:
	mov	rdi, qword ptr [rbp - 16]       ## 8-byte Reload
	call	__ZNSt3__113__vector_baseINS_6vectorIcNS_9allocatorIcEEEENS2_IS4_EEE5clearEv
	mov	rdi, qword ptr [rbp - 16]       ## 8-byte Reload
	call	__ZNSt3__113__vector_baseINS_6vectorIcNS_9allocatorIcEEEENS2_IS4_EEE7__allocEv
	mov	rcx, qword ptr [rbp - 16]       ## 8-byte Reload
	mov	rsi, qword ptr [rcx]
	mov	rdi, rcx
	mov	qword ptr [rbp - 24], rax       ## 8-byte Spill
	mov	qword ptr [rbp - 32], rsi       ## 8-byte Spill
	call	__ZNKSt3__113__vector_baseINS_6vectorIcNS_9allocatorIcEEEENS2_IS4_EEE8capacityEv
	mov	rdi, qword ptr [rbp - 24]       ## 8-byte Reload
	mov	rsi, qword ptr [rbp - 32]       ## 8-byte Reload
	mov	rdx, rax
	call	__ZNSt3__116allocator_traitsINS_9allocatorINS_6vectorIcNS1_IcEEEEEEE10deallocateERS5_PS4_m
LBB84_2:
	add	rsp, 32
	pop	rbp
	ret
	.cfi_endproc
                                        ## -- End function
	.p2align	4, 0x90                         ## -- Begin function _ZNSt3__117__compressed_pairIPNS_6vectorIcNS_9allocatorIcEEEENS2_IS4_EEEC1IDnNS_18__default_init_tagEEEOT_OT0_
__ZNSt3__117__compressed_pairIPNS_6vectorIcNS_9allocatorIcEEEENS2_IS4_EEEC1IDnNS_18__default_init_tagEEEOT_OT0_: ## @_ZNSt3__117__compressed_pairIPNS_6vectorIcNS_9allocatorIcEEEENS2_IS4_EEEC1IDnNS_18__default_init_tagEEEOT_OT0_
	.cfi_startproc
## %bb.0:
	push	rbp
	.cfi_def_cfa_offset 16
	.cfi_offset rbp, -16
	mov	rbp, rsp
	.cfi_def_cfa_register rbp
	sub	rsp, 32
	mov	qword ptr [rbp - 8], rdi
	mov	qword ptr [rbp - 16], rsi
	mov	qword ptr [rbp - 24], rdx
	mov	rdi, qword ptr [rbp - 8]
	mov	rsi, qword ptr [rbp - 16]
	mov	rdx, qword ptr [rbp - 24]
	call	__ZNSt3__117__compressed_pairIPNS_6vectorIcNS_9allocatorIcEEEENS2_IS4_EEEC2IDnNS_18__default_init_tagEEEOT_OT0_
	add	rsp, 32
	pop	rbp
	ret
	.cfi_endproc
                                        ## -- End function
	.p2align	4, 0x90                         ## -- Begin function _ZNSt3__117__compressed_pairIPNS_6vectorIcNS_9allocatorIcEEEENS2_IS4_EEEC2IDnNS_18__default_init_tagEEEOT_OT0_
__ZNSt3__117__compressed_pairIPNS_6vectorIcNS_9allocatorIcEEEENS2_IS4_EEEC2IDnNS_18__default_init_tagEEEOT_OT0_: ## @_ZNSt3__117__compressed_pairIPNS_6vectorIcNS_9allocatorIcEEEENS2_IS4_EEEC2IDnNS_18__default_init_tagEEEOT_OT0_
	.cfi_startproc
## %bb.0:
	push	rbp
	.cfi_def_cfa_offset 16
	.cfi_offset rbp, -16
	mov	rbp, rsp
	.cfi_def_cfa_register rbp
	sub	rsp, 64
	mov	qword ptr [rbp - 8], rdi
	mov	qword ptr [rbp - 16], rsi
	mov	qword ptr [rbp - 24], rdx
	mov	rax, qword ptr [rbp - 8]
	mov	rcx, rax
	mov	rdi, qword ptr [rbp - 16]
	mov	qword ptr [rbp - 40], rax       ## 8-byte Spill
	mov	qword ptr [rbp - 48], rcx       ## 8-byte Spill
	call	__ZNSt3__1L7forwardIDnEEOT_RNS_16remove_referenceIS1_E4typeE
	mov	rdi, qword ptr [rbp - 48]       ## 8-byte Reload
	mov	rsi, rax
	call	__ZNSt3__122__compressed_pair_elemIPNS_6vectorIcNS_9allocatorIcEEEELi0ELb0EEC2IDnvEEOT_
	mov	rax, qword ptr [rbp - 40]       ## 8-byte Reload
	mov	rdi, qword ptr [rbp - 24]
	mov	qword ptr [rbp - 56], rax       ## 8-byte Spill
	call	__ZNSt3__1L7forwardINS_18__default_init_tagEEEOT_RNS_16remove_referenceIS2_E4typeE
	mov	rdi, qword ptr [rbp - 56]       ## 8-byte Reload
	mov	qword ptr [rbp - 64], rax       ## 8-byte Spill
	call	__ZNSt3__122__compressed_pair_elemINS_9allocatorINS_6vectorIcNS1_IcEEEEEELi1ELb1EEC2ENS_18__default_init_tagE
	add	rsp, 64
	pop	rbp
	ret
	.cfi_endproc
                                        ## -- End function
	.p2align	4, 0x90                         ## -- Begin function _ZNSt3__122__compressed_pair_elemIPNS_6vectorIcNS_9allocatorIcEEEELi0ELb0EEC2IDnvEEOT_
__ZNSt3__122__compressed_pair_elemIPNS_6vectorIcNS_9allocatorIcEEEELi0ELb0EEC2IDnvEEOT_: ## @_ZNSt3__122__compressed_pair_elemIPNS_6vectorIcNS_9allocatorIcEEEELi0ELb0EEC2IDnvEEOT_
	.cfi_startproc
## %bb.0:
	push	rbp
	.cfi_def_cfa_offset 16
	.cfi_offset rbp, -16
	mov	rbp, rsp
	.cfi_def_cfa_register rbp
	sub	rsp, 32
	mov	qword ptr [rbp - 8], rdi
	mov	qword ptr [rbp - 16], rsi
	mov	rax, qword ptr [rbp - 8]
	mov	rdi, qword ptr [rbp - 16]
	mov	qword ptr [rbp - 24], rax       ## 8-byte Spill
	call	__ZNSt3__1L7forwardIDnEEOT_RNS_16remove_referenceIS1_E4typeE
	mov	rcx, qword ptr [rbp - 24]       ## 8-byte Reload
	mov	qword ptr [rcx], 0
	add	rsp, 32
	pop	rbp
	ret
	.cfi_endproc
                                        ## -- End function
	.p2align	4, 0x90                         ## -- Begin function _ZNSt3__122__compressed_pair_elemINS_9allocatorINS_6vectorIcNS1_IcEEEEEELi1ELb1EEC2ENS_18__default_init_tagE
__ZNSt3__122__compressed_pair_elemINS_9allocatorINS_6vectorIcNS1_IcEEEEEELi1ELb1EEC2ENS_18__default_init_tagE: ## @_ZNSt3__122__compressed_pair_elemINS_9allocatorINS_6vectorIcNS1_IcEEEEEELi1ELb1EEC2ENS_18__default_init_tagE
	.cfi_startproc
## %bb.0:
	push	rbp
	.cfi_def_cfa_offset 16
	.cfi_offset rbp, -16
	mov	rbp, rsp
	.cfi_def_cfa_register rbp
	sub	rsp, 16
	mov	qword ptr [rbp - 16], rdi
	mov	rax, qword ptr [rbp - 16]
	mov	rdi, rax
	call	__ZNSt3__19allocatorINS_6vectorIcNS0_IcEEEEEC2Ev
	add	rsp, 16
	pop	rbp
	ret
	.cfi_endproc
                                        ## -- End function
	.p2align	4, 0x90                         ## -- Begin function _ZNSt3__19allocatorINS_6vectorIcNS0_IcEEEEEC2Ev
__ZNSt3__19allocatorINS_6vectorIcNS0_IcEEEEEC2Ev: ## @_ZNSt3__19allocatorINS_6vectorIcNS0_IcEEEEEC2Ev
	.cfi_startproc
## %bb.0:
	push	rbp
	.cfi_def_cfa_offset 16
	.cfi_offset rbp, -16
	mov	rbp, rsp
	.cfi_def_cfa_register rbp
	mov	qword ptr [rbp - 8], rdi
	pop	rbp
	ret
	.cfi_endproc
                                        ## -- End function
	.globl	__ZNKSt3__16vectorINS0_IcNS_9allocatorIcEEEENS1_IS3_EEE8max_sizeEv ## -- Begin function _ZNKSt3__16vectorINS0_IcNS_9allocatorIcEEEENS1_IS3_EEE8max_sizeEv
	.weak_definition	__ZNKSt3__16vectorINS0_IcNS_9allocatorIcEEEENS1_IS3_EEE8max_sizeEv
	.p2align	4, 0x90
__ZNKSt3__16vectorINS0_IcNS_9allocatorIcEEEENS1_IS3_EEE8max_sizeEv: ## @_ZNKSt3__16vectorINS0_IcNS_9allocatorIcEEEENS1_IS3_EEE8max_sizeEv
Lfunc_begin12:
	.cfi_startproc
	.cfi_personality 155, ___gxx_personality_v0
	.cfi_lsda 16, Lexception12
## %bb.0:
	push	rbp
	.cfi_def_cfa_offset 16
	.cfi_offset rbp, -16
	mov	rbp, rsp
	.cfi_def_cfa_register rbp
	sub	rsp, 48
	mov	qword ptr [rbp - 8], rdi
	mov	rdi, qword ptr [rbp - 8]
	call	__ZNKSt3__113__vector_baseINS_6vectorIcNS_9allocatorIcEEEENS2_IS4_EEE7__allocEv
	mov	rdi, rax
	call	__ZNSt3__116allocator_traitsINS_9allocatorINS_6vectorIcNS1_IcEEEEEEE8max_sizeERKS5_
	mov	qword ptr [rbp - 16], rax
	call	__ZNSt3__114numeric_limitsIlE3maxEv
	mov	qword ptr [rbp - 24], rax
Ltmp93:
	lea	rdi, [rbp - 16]
	lea	rsi, [rbp - 24]
	call	__ZNSt3__1L3minImEERKT_S3_S3_
Ltmp94:
	mov	qword ptr [rbp - 32], rax       ## 8-byte Spill
	jmp	LBB90_1
LBB90_1:
	mov	rax, qword ptr [rbp - 32]       ## 8-byte Reload
	mov	rax, qword ptr [rax]
	add	rsp, 48
	pop	rbp
	ret
LBB90_2:
Ltmp95:
	mov	rdi, rax
	mov	qword ptr [rbp - 40], rdx       ## 8-byte Spill
	call	___clang_call_terminate
Lfunc_end12:
	.cfi_endproc
	.section	__TEXT,__gcc_except_tab
	.p2align	2
GCC_except_table90:
Lexception12:
	.byte	255                             ## @LPStart Encoding = omit
	.byte	155                             ## @TType Encoding = indirect pcrel sdata4
	.uleb128 Lttbase5-Lttbaseref5
Lttbaseref5:
	.byte	1                               ## Call site Encoding = uleb128
	.uleb128 Lcst_end12-Lcst_begin12
Lcst_begin12:
	.uleb128 Ltmp93-Lfunc_begin12           ## >> Call Site 1 <<
	.uleb128 Ltmp94-Ltmp93                  ##   Call between Ltmp93 and Ltmp94
	.uleb128 Ltmp95-Lfunc_begin12           ##     jumps to Ltmp95
	.byte	1                               ##   On action: 1
Lcst_end12:
	.byte	1                               ## >> Action Record 1 <<
                                        ##   Catch TypeInfo 1
	.byte	0                               ##   No further actions
	.p2align	2
                                        ## >> Catch TypeInfos <<
	.long	0                               ## TypeInfo 1
Lttbase5:
	.p2align	2
                                        ## -- End function
	.section	__TEXT,__text,regular,pure_instructions
	.p2align	4, 0x90                         ## -- Begin function _ZNSt3__116allocator_traitsINS_9allocatorINS_6vectorIcNS1_IcEEEEEEE8allocateERS5_m
__ZNSt3__116allocator_traitsINS_9allocatorINS_6vectorIcNS1_IcEEEEEEE8allocateERS5_m: ## @_ZNSt3__116allocator_traitsINS_9allocatorINS_6vectorIcNS1_IcEEEEEEE8allocateERS5_m
	.cfi_startproc
## %bb.0:
	push	rbp
	.cfi_def_cfa_offset 16
	.cfi_offset rbp, -16
	mov	rbp, rsp
	.cfi_def_cfa_register rbp
	sub	rsp, 16
	mov	qword ptr [rbp - 8], rdi
	mov	qword ptr [rbp - 16], rsi
	mov	rdi, qword ptr [rbp - 8]
	mov	rsi, qword ptr [rbp - 16]
	call	__ZNSt3__19allocatorINS_6vectorIcNS0_IcEEEEE8allocateEm
	add	rsp, 16
	pop	rbp
	ret
	.cfi_endproc
                                        ## -- End function
	.p2align	4, 0x90                         ## -- Begin function _ZNSt3__113__vector_baseINS_6vectorIcNS_9allocatorIcEEEENS2_IS4_EEE7__allocEv
__ZNSt3__113__vector_baseINS_6vectorIcNS_9allocatorIcEEEENS2_IS4_EEE7__allocEv: ## @_ZNSt3__113__vector_baseINS_6vectorIcNS_9allocatorIcEEEENS2_IS4_EEE7__allocEv
	.cfi_startproc
## %bb.0:
	push	rbp
	.cfi_def_cfa_offset 16
	.cfi_offset rbp, -16
	mov	rbp, rsp
	.cfi_def_cfa_register rbp
	sub	rsp, 16
	mov	qword ptr [rbp - 8], rdi
	mov	rax, qword ptr [rbp - 8]
	add	rax, 16
	mov	rdi, rax
	call	__ZNSt3__117__compressed_pairIPNS_6vectorIcNS_9allocatorIcEEEENS2_IS4_EEE6secondEv
	add	rsp, 16
	pop	rbp
	ret
	.cfi_endproc
                                        ## -- End function
	.p2align	4, 0x90                         ## -- Begin function _ZNSt3__113__vector_baseINS_6vectorIcNS_9allocatorIcEEEENS2_IS4_EEE9__end_capEv
__ZNSt3__113__vector_baseINS_6vectorIcNS_9allocatorIcEEEENS2_IS4_EEE9__end_capEv: ## @_ZNSt3__113__vector_baseINS_6vectorIcNS_9allocatorIcEEEENS2_IS4_EEE9__end_capEv
	.cfi_startproc
## %bb.0:
	push	rbp
	.cfi_def_cfa_offset 16
	.cfi_offset rbp, -16
	mov	rbp, rsp
	.cfi_def_cfa_register rbp
	sub	rsp, 16
	mov	qword ptr [rbp - 8], rdi
	mov	rax, qword ptr [rbp - 8]
	add	rax, 16
	mov	rdi, rax
	call	__ZNSt3__117__compressed_pairIPNS_6vectorIcNS_9allocatorIcEEEENS2_IS4_EEE5firstEv
	add	rsp, 16
	pop	rbp
	ret
	.cfi_endproc
                                        ## -- End function
	.p2align	4, 0x90                         ## -- Begin function _ZNKSt3__16vectorINS0_IcNS_9allocatorIcEEEENS1_IS3_EEE14__annotate_newEm
__ZNKSt3__16vectorINS0_IcNS_9allocatorIcEEEENS1_IS3_EEE14__annotate_newEm: ## @_ZNKSt3__16vectorINS0_IcNS_9allocatorIcEEEENS1_IS3_EEE14__annotate_newEm
	.cfi_startproc
## %bb.0:
	push	rbp
	.cfi_def_cfa_offset 16
	.cfi_offset rbp, -16
	mov	rbp, rsp
	.cfi_def_cfa_register rbp
	sub	rsp, 64
	mov	qword ptr [rbp - 8], rdi
	mov	qword ptr [rbp - 16], rsi
	mov	rax, qword ptr [rbp - 8]
	mov	rdi, rax
	mov	qword ptr [rbp - 24], rax       ## 8-byte Spill
	call	__ZNKSt3__16vectorINS0_IcNS_9allocatorIcEEEENS1_IS3_EEE4dataEv
	mov	rdi, qword ptr [rbp - 24]       ## 8-byte Reload
	mov	qword ptr [rbp - 32], rax       ## 8-byte Spill
	call	__ZNKSt3__16vectorINS0_IcNS_9allocatorIcEEEENS1_IS3_EEE4dataEv
	mov	rdi, qword ptr [rbp - 24]       ## 8-byte Reload
	mov	qword ptr [rbp - 40], rax       ## 8-byte Spill
	call	__ZNKSt3__16vectorINS0_IcNS_9allocatorIcEEEENS1_IS3_EEE8capacityEv
	imul	rax, rax, 24
	mov	rcx, qword ptr [rbp - 40]       ## 8-byte Reload
	add	rcx, rax
	mov	rdi, qword ptr [rbp - 24]       ## 8-byte Reload
	mov	qword ptr [rbp - 48], rcx       ## 8-byte Spill
	call	__ZNKSt3__16vectorINS0_IcNS_9allocatorIcEEEENS1_IS3_EEE4dataEv
	mov	rdi, qword ptr [rbp - 24]       ## 8-byte Reload
	mov	qword ptr [rbp - 56], rax       ## 8-byte Spill
	call	__ZNKSt3__16vectorINS0_IcNS_9allocatorIcEEEENS1_IS3_EEE8capacityEv
	imul	rax, rax, 24
	mov	rcx, qword ptr [rbp - 56]       ## 8-byte Reload
	add	rcx, rax
	mov	rdi, qword ptr [rbp - 24]       ## 8-byte Reload
	mov	qword ptr [rbp - 64], rcx       ## 8-byte Spill
	call	__ZNKSt3__16vectorINS0_IcNS_9allocatorIcEEEENS1_IS3_EEE4dataEv
	imul	rcx, qword ptr [rbp - 16], 24
	add	rax, rcx
	mov	rdi, qword ptr [rbp - 24]       ## 8-byte Reload
	mov	rsi, qword ptr [rbp - 32]       ## 8-byte Reload
	mov	rdx, qword ptr [rbp - 48]       ## 8-byte Reload
	mov	rcx, qword ptr [rbp - 64]       ## 8-byte Reload
	mov	r8, rax
	call	__ZNKSt3__16vectorINS0_IcNS_9allocatorIcEEEENS1_IS3_EEE31__annotate_contiguous_containerEPKvS7_S7_S7_
	add	rsp, 64
	pop	rbp
	ret
	.cfi_endproc
                                        ## -- End function
	.p2align	4, 0x90                         ## -- Begin function _ZNSt3__116allocator_traitsINS_9allocatorINS_6vectorIcNS1_IcEEEEEEE8max_sizeERKS5_
__ZNSt3__116allocator_traitsINS_9allocatorINS_6vectorIcNS1_IcEEEEEEE8max_sizeERKS5_: ## @_ZNSt3__116allocator_traitsINS_9allocatorINS_6vectorIcNS1_IcEEEEEEE8max_sizeERKS5_
	.cfi_startproc
## %bb.0:
	push	rbp
	.cfi_def_cfa_offset 16
	.cfi_offset rbp, -16
	mov	rbp, rsp
	.cfi_def_cfa_register rbp
	sub	rsp, 32
	mov	qword ptr [rbp - 8], rdi
	mov	rdi, qword ptr [rbp - 8]
	call	__ZNSt3__116allocator_traitsINS_9allocatorINS_6vectorIcNS1_IcEEEEEEE10__max_sizeENS_17integral_constantIbLb1EEERKS5_
	add	rsp, 32
	pop	rbp
	ret
	.cfi_endproc
                                        ## -- End function
	.p2align	4, 0x90                         ## -- Begin function _ZNKSt3__113__vector_baseINS_6vectorIcNS_9allocatorIcEEEENS2_IS4_EEE7__allocEv
__ZNKSt3__113__vector_baseINS_6vectorIcNS_9allocatorIcEEEENS2_IS4_EEE7__allocEv: ## @_ZNKSt3__113__vector_baseINS_6vectorIcNS_9allocatorIcEEEENS2_IS4_EEE7__allocEv
	.cfi_startproc
## %bb.0:
	push	rbp
	.cfi_def_cfa_offset 16
	.cfi_offset rbp, -16
	mov	rbp, rsp
	.cfi_def_cfa_register rbp
	sub	rsp, 16
	mov	qword ptr [rbp - 8], rdi
	mov	rax, qword ptr [rbp - 8]
	add	rax, 16
	mov	rdi, rax
	call	__ZNKSt3__117__compressed_pairIPNS_6vectorIcNS_9allocatorIcEEEENS2_IS4_EEE6secondEv
	add	rsp, 16
	pop	rbp
	ret
	.cfi_endproc
                                        ## -- End function
	.p2align	4, 0x90                         ## -- Begin function _ZNSt3__116allocator_traitsINS_9allocatorINS_6vectorIcNS1_IcEEEEEEE10__max_sizeENS_17integral_constantIbLb1EEERKS5_
__ZNSt3__116allocator_traitsINS_9allocatorINS_6vectorIcNS1_IcEEEEEEE10__max_sizeENS_17integral_constantIbLb1EEERKS5_: ## @_ZNSt3__116allocator_traitsINS_9allocatorINS_6vectorIcNS1_IcEEEEEEE10__max_sizeENS_17integral_constantIbLb1EEERKS5_
	.cfi_startproc
## %bb.0:
	push	rbp
	.cfi_def_cfa_offset 16
	.cfi_offset rbp, -16
	mov	rbp, rsp
	.cfi_def_cfa_register rbp
	sub	rsp, 16
	mov	qword ptr [rbp - 16], rdi
	mov	rdi, qword ptr [rbp - 16]
	call	__ZNKSt3__19allocatorINS_6vectorIcNS0_IcEEEEE8max_sizeEv
	add	rsp, 16
	pop	rbp
	ret
	.cfi_endproc
                                        ## -- End function
	.p2align	4, 0x90                         ## -- Begin function _ZNKSt3__19allocatorINS_6vectorIcNS0_IcEEEEE8max_sizeEv
__ZNKSt3__19allocatorINS_6vectorIcNS0_IcEEEEE8max_sizeEv: ## @_ZNKSt3__19allocatorINS_6vectorIcNS0_IcEEEEE8max_sizeEv
	.cfi_startproc
## %bb.0:
	push	rbp
	.cfi_def_cfa_offset 16
	.cfi_offset rbp, -16
	mov	rbp, rsp
	.cfi_def_cfa_register rbp
	mov	qword ptr [rbp - 8], rdi
	movabs	rax, 768614336404564650
	pop	rbp
	ret
	.cfi_endproc
                                        ## -- End function
	.p2align	4, 0x90                         ## -- Begin function _ZNKSt3__117__compressed_pairIPNS_6vectorIcNS_9allocatorIcEEEENS2_IS4_EEE6secondEv
__ZNKSt3__117__compressed_pairIPNS_6vectorIcNS_9allocatorIcEEEENS2_IS4_EEE6secondEv: ## @_ZNKSt3__117__compressed_pairIPNS_6vectorIcNS_9allocatorIcEEEENS2_IS4_EEE6secondEv
	.cfi_startproc
## %bb.0:
	push	rbp
	.cfi_def_cfa_offset 16
	.cfi_offset rbp, -16
	mov	rbp, rsp
	.cfi_def_cfa_register rbp
	sub	rsp, 16
	mov	qword ptr [rbp - 8], rdi
	mov	rax, qword ptr [rbp - 8]
	mov	rdi, rax
	call	__ZNKSt3__122__compressed_pair_elemINS_9allocatorINS_6vectorIcNS1_IcEEEEEELi1ELb1EE5__getEv
	add	rsp, 16
	pop	rbp
	ret
	.cfi_endproc
                                        ## -- End function
	.p2align	4, 0x90                         ## -- Begin function _ZNKSt3__122__compressed_pair_elemINS_9allocatorINS_6vectorIcNS1_IcEEEEEELi1ELb1EE5__getEv
__ZNKSt3__122__compressed_pair_elemINS_9allocatorINS_6vectorIcNS1_IcEEEEEELi1ELb1EE5__getEv: ## @_ZNKSt3__122__compressed_pair_elemINS_9allocatorINS_6vectorIcNS1_IcEEEEEELi1ELb1EE5__getEv
	.cfi_startproc
## %bb.0:
	push	rbp
	.cfi_def_cfa_offset 16
	.cfi_offset rbp, -16
	mov	rbp, rsp
	.cfi_def_cfa_register rbp
	mov	qword ptr [rbp - 8], rdi
	mov	rax, qword ptr [rbp - 8]
	pop	rbp
	ret
	.cfi_endproc
                                        ## -- End function
	.p2align	4, 0x90                         ## -- Begin function _ZNSt3__19allocatorINS_6vectorIcNS0_IcEEEEE8allocateEm
__ZNSt3__19allocatorINS_6vectorIcNS0_IcEEEEE8allocateEm: ## @_ZNSt3__19allocatorINS_6vectorIcNS0_IcEEEEE8allocateEm
	.cfi_startproc
## %bb.0:
	push	rbp
	.cfi_def_cfa_offset 16
	.cfi_offset rbp, -16
	mov	rbp, rsp
	.cfi_def_cfa_register rbp
	sub	rsp, 16
	mov	qword ptr [rbp - 8], rdi
	mov	qword ptr [rbp - 16], rsi
	movabs	rax, 768614336404564650
	cmp	qword ptr [rbp - 16], rax
	jbe	LBB101_2
## %bb.1:
	lea	rdi, [rip + L_.str]
	call	__ZNSt3__1L20__throw_length_errorEPKc
LBB101_2:
	imul	rdi, qword ptr [rbp - 16], 24
	mov	esi, 8
	call	__ZNSt3__1L17__libcpp_allocateEmm
	add	rsp, 16
	pop	rbp
	ret
	.cfi_endproc
                                        ## -- End function
	.p2align	4, 0x90                         ## -- Begin function _ZNSt3__117__compressed_pairIPNS_6vectorIcNS_9allocatorIcEEEENS2_IS4_EEE6secondEv
__ZNSt3__117__compressed_pairIPNS_6vectorIcNS_9allocatorIcEEEENS2_IS4_EEE6secondEv: ## @_ZNSt3__117__compressed_pairIPNS_6vectorIcNS_9allocatorIcEEEENS2_IS4_EEE6secondEv
	.cfi_startproc
## %bb.0:
	push	rbp
	.cfi_def_cfa_offset 16
	.cfi_offset rbp, -16
	mov	rbp, rsp
	.cfi_def_cfa_register rbp
	sub	rsp, 16
	mov	qword ptr [rbp - 8], rdi
	mov	rax, qword ptr [rbp - 8]
	mov	rdi, rax
	call	__ZNSt3__122__compressed_pair_elemINS_9allocatorINS_6vectorIcNS1_IcEEEEEELi1ELb1EE5__getEv
	add	rsp, 16
	pop	rbp
	ret
	.cfi_endproc
                                        ## -- End function
	.p2align	4, 0x90                         ## -- Begin function _ZNSt3__122__compressed_pair_elemINS_9allocatorINS_6vectorIcNS1_IcEEEEEELi1ELb1EE5__getEv
__ZNSt3__122__compressed_pair_elemINS_9allocatorINS_6vectorIcNS1_IcEEEEEELi1ELb1EE5__getEv: ## @_ZNSt3__122__compressed_pair_elemINS_9allocatorINS_6vectorIcNS1_IcEEEEEELi1ELb1EE5__getEv
	.cfi_startproc
## %bb.0:
	push	rbp
	.cfi_def_cfa_offset 16
	.cfi_offset rbp, -16
	mov	rbp, rsp
	.cfi_def_cfa_register rbp
	mov	qword ptr [rbp - 8], rdi
	mov	rax, qword ptr [rbp - 8]
	pop	rbp
	ret
	.cfi_endproc
                                        ## -- End function
	.p2align	4, 0x90                         ## -- Begin function _ZNSt3__117__compressed_pairIPNS_6vectorIcNS_9allocatorIcEEEENS2_IS4_EEE5firstEv
__ZNSt3__117__compressed_pairIPNS_6vectorIcNS_9allocatorIcEEEENS2_IS4_EEE5firstEv: ## @_ZNSt3__117__compressed_pairIPNS_6vectorIcNS_9allocatorIcEEEENS2_IS4_EEE5firstEv
	.cfi_startproc
## %bb.0:
	push	rbp
	.cfi_def_cfa_offset 16
	.cfi_offset rbp, -16
	mov	rbp, rsp
	.cfi_def_cfa_register rbp
	sub	rsp, 16
	mov	qword ptr [rbp - 8], rdi
	mov	rax, qword ptr [rbp - 8]
	mov	rdi, rax
	call	__ZNSt3__122__compressed_pair_elemIPNS_6vectorIcNS_9allocatorIcEEEELi0ELb0EE5__getEv
	add	rsp, 16
	pop	rbp
	ret
	.cfi_endproc
                                        ## -- End function
	.p2align	4, 0x90                         ## -- Begin function _ZNSt3__122__compressed_pair_elemIPNS_6vectorIcNS_9allocatorIcEEEELi0ELb0EE5__getEv
__ZNSt3__122__compressed_pair_elemIPNS_6vectorIcNS_9allocatorIcEEEELi0ELb0EE5__getEv: ## @_ZNSt3__122__compressed_pair_elemIPNS_6vectorIcNS_9allocatorIcEEEELi0ELb0EE5__getEv
	.cfi_startproc
## %bb.0:
	push	rbp
	.cfi_def_cfa_offset 16
	.cfi_offset rbp, -16
	mov	rbp, rsp
	.cfi_def_cfa_register rbp
	mov	qword ptr [rbp - 8], rdi
	mov	rax, qword ptr [rbp - 8]
	pop	rbp
	ret
	.cfi_endproc
                                        ## -- End function
	.p2align	4, 0x90                         ## -- Begin function _ZNKSt3__16vectorINS0_IcNS_9allocatorIcEEEENS1_IS3_EEE31__annotate_contiguous_containerEPKvS7_S7_S7_
__ZNKSt3__16vectorINS0_IcNS_9allocatorIcEEEENS1_IS3_EEE31__annotate_contiguous_containerEPKvS7_S7_S7_: ## @_ZNKSt3__16vectorINS0_IcNS_9allocatorIcEEEENS1_IS3_EEE31__annotate_contiguous_containerEPKvS7_S7_S7_
	.cfi_startproc
## %bb.0:
	push	rbp
	.cfi_def_cfa_offset 16
	.cfi_offset rbp, -16
	mov	rbp, rsp
	.cfi_def_cfa_register rbp
	mov	qword ptr [rbp - 8], rdi
	mov	qword ptr [rbp - 16], rsi
	mov	qword ptr [rbp - 24], rdx
	mov	qword ptr [rbp - 32], rcx
	mov	qword ptr [rbp - 40], r8
	pop	rbp
	ret
	.cfi_endproc
                                        ## -- End function
	.p2align	4, 0x90                         ## -- Begin function _ZNKSt3__16vectorINS0_IcNS_9allocatorIcEEEENS1_IS3_EEE4dataEv
__ZNKSt3__16vectorINS0_IcNS_9allocatorIcEEEENS1_IS3_EEE4dataEv: ## @_ZNKSt3__16vectorINS0_IcNS_9allocatorIcEEEENS1_IS3_EEE4dataEv
	.cfi_startproc
## %bb.0:
	push	rbp
	.cfi_def_cfa_offset 16
	.cfi_offset rbp, -16
	mov	rbp, rsp
	.cfi_def_cfa_register rbp
	sub	rsp, 16
	mov	qword ptr [rbp - 8], rdi
	mov	rax, qword ptr [rbp - 8]
	mov	rdi, qword ptr [rax]
	call	__ZNSt3__1L12__to_addressINS_6vectorIcNS_9allocatorIcEEEEEEPT_S6_
	add	rsp, 16
	pop	rbp
	ret
	.cfi_endproc
                                        ## -- End function
	.p2align	4, 0x90                         ## -- Begin function _ZNKSt3__16vectorINS0_IcNS_9allocatorIcEEEENS1_IS3_EEE8capacityEv
__ZNKSt3__16vectorINS0_IcNS_9allocatorIcEEEENS1_IS3_EEE8capacityEv: ## @_ZNKSt3__16vectorINS0_IcNS_9allocatorIcEEEENS1_IS3_EEE8capacityEv
	.cfi_startproc
## %bb.0:
	push	rbp
	.cfi_def_cfa_offset 16
	.cfi_offset rbp, -16
	mov	rbp, rsp
	.cfi_def_cfa_register rbp
	sub	rsp, 16
	mov	qword ptr [rbp - 8], rdi
	mov	rax, qword ptr [rbp - 8]
	mov	rdi, rax
	call	__ZNKSt3__113__vector_baseINS_6vectorIcNS_9allocatorIcEEEENS2_IS4_EEE8capacityEv
	add	rsp, 16
	pop	rbp
	ret
	.cfi_endproc
                                        ## -- End function
	.p2align	4, 0x90                         ## -- Begin function _ZNSt3__1L12__to_addressINS_6vectorIcNS_9allocatorIcEEEEEEPT_S6_
__ZNSt3__1L12__to_addressINS_6vectorIcNS_9allocatorIcEEEEEEPT_S6_: ## @_ZNSt3__1L12__to_addressINS_6vectorIcNS_9allocatorIcEEEEEEPT_S6_
	.cfi_startproc
## %bb.0:
	push	rbp
	.cfi_def_cfa_offset 16
	.cfi_offset rbp, -16
	mov	rbp, rsp
	.cfi_def_cfa_register rbp
	mov	qword ptr [rbp - 8], rdi
	mov	rax, qword ptr [rbp - 8]
	pop	rbp
	ret
	.cfi_endproc
                                        ## -- End function
	.p2align	4, 0x90                         ## -- Begin function _ZNKSt3__113__vector_baseINS_6vectorIcNS_9allocatorIcEEEENS2_IS4_EEE8capacityEv
__ZNKSt3__113__vector_baseINS_6vectorIcNS_9allocatorIcEEEENS2_IS4_EEE8capacityEv: ## @_ZNKSt3__113__vector_baseINS_6vectorIcNS_9allocatorIcEEEENS2_IS4_EEE8capacityEv
	.cfi_startproc
## %bb.0:
	push	rbp
	.cfi_def_cfa_offset 16
	.cfi_offset rbp, -16
	mov	rbp, rsp
	.cfi_def_cfa_register rbp
	sub	rsp, 16
	mov	qword ptr [rbp - 8], rdi
	mov	rax, qword ptr [rbp - 8]
	mov	rdi, rax
	mov	qword ptr [rbp - 16], rax       ## 8-byte Spill
	call	__ZNKSt3__113__vector_baseINS_6vectorIcNS_9allocatorIcEEEENS2_IS4_EEE9__end_capEv
	mov	rax, qword ptr [rax]
	mov	rcx, qword ptr [rbp - 16]       ## 8-byte Reload
	mov	rdx, qword ptr [rcx]
	sub	rax, rdx
	cqo
	mov	esi, 24
	idiv	rsi
	add	rsp, 16
	pop	rbp
	ret
	.cfi_endproc
                                        ## -- End function
	.p2align	4, 0x90                         ## -- Begin function _ZNKSt3__113__vector_baseINS_6vectorIcNS_9allocatorIcEEEENS2_IS4_EEE9__end_capEv
__ZNKSt3__113__vector_baseINS_6vectorIcNS_9allocatorIcEEEENS2_IS4_EEE9__end_capEv: ## @_ZNKSt3__113__vector_baseINS_6vectorIcNS_9allocatorIcEEEENS2_IS4_EEE9__end_capEv
	.cfi_startproc
## %bb.0:
	push	rbp
	.cfi_def_cfa_offset 16
	.cfi_offset rbp, -16
	mov	rbp, rsp
	.cfi_def_cfa_register rbp
	sub	rsp, 16
	mov	qword ptr [rbp - 8], rdi
	mov	rax, qword ptr [rbp - 8]
	add	rax, 16
	mov	rdi, rax
	call	__ZNKSt3__117__compressed_pairIPNS_6vectorIcNS_9allocatorIcEEEENS2_IS4_EEE5firstEv
	add	rsp, 16
	pop	rbp
	ret
	.cfi_endproc
                                        ## -- End function
	.p2align	4, 0x90                         ## -- Begin function _ZNKSt3__117__compressed_pairIPNS_6vectorIcNS_9allocatorIcEEEENS2_IS4_EEE5firstEv
__ZNKSt3__117__compressed_pairIPNS_6vectorIcNS_9allocatorIcEEEENS2_IS4_EEE5firstEv: ## @_ZNKSt3__117__compressed_pairIPNS_6vectorIcNS_9allocatorIcEEEENS2_IS4_EEE5firstEv
	.cfi_startproc
## %bb.0:
	push	rbp
	.cfi_def_cfa_offset 16
	.cfi_offset rbp, -16
	mov	rbp, rsp
	.cfi_def_cfa_register rbp
	sub	rsp, 16
	mov	qword ptr [rbp - 8], rdi
	mov	rax, qword ptr [rbp - 8]
	mov	rdi, rax
	call	__ZNKSt3__122__compressed_pair_elemIPNS_6vectorIcNS_9allocatorIcEEEELi0ELb0EE5__getEv
	add	rsp, 16
	pop	rbp
	ret
	.cfi_endproc
                                        ## -- End function
	.p2align	4, 0x90                         ## -- Begin function _ZNKSt3__122__compressed_pair_elemIPNS_6vectorIcNS_9allocatorIcEEEELi0ELb0EE5__getEv
__ZNKSt3__122__compressed_pair_elemIPNS_6vectorIcNS_9allocatorIcEEEELi0ELb0EE5__getEv: ## @_ZNKSt3__122__compressed_pair_elemIPNS_6vectorIcNS_9allocatorIcEEEELi0ELb0EE5__getEv
	.cfi_startproc
## %bb.0:
	push	rbp
	.cfi_def_cfa_offset 16
	.cfi_offset rbp, -16
	mov	rbp, rsp
	.cfi_def_cfa_register rbp
	mov	qword ptr [rbp - 8], rdi
	mov	rax, qword ptr [rbp - 8]
	pop	rbp
	ret
	.cfi_endproc
                                        ## -- End function
	.globl	__ZNSt3__16vectorINS0_IcNS_9allocatorIcEEEENS1_IS3_EEE21_ConstructTransactionC1ERS5_m ## -- Begin function _ZNSt3__16vectorINS0_IcNS_9allocatorIcEEEENS1_IS3_EEE21_ConstructTransactionC1ERS5_m
	.weak_def_can_be_hidden	__ZNSt3__16vectorINS0_IcNS_9allocatorIcEEEENS1_IS3_EEE21_ConstructTransactionC1ERS5_m
	.p2align	4, 0x90
__ZNSt3__16vectorINS0_IcNS_9allocatorIcEEEENS1_IS3_EEE21_ConstructTransactionC1ERS5_m: ## @_ZNSt3__16vectorINS0_IcNS_9allocatorIcEEEENS1_IS3_EEE21_ConstructTransactionC1ERS5_m
	.cfi_startproc
## %bb.0:
	push	rbp
	.cfi_def_cfa_offset 16
	.cfi_offset rbp, -16
	mov	rbp, rsp
	.cfi_def_cfa_register rbp
	sub	rsp, 32
	mov	qword ptr [rbp - 8], rdi
	mov	qword ptr [rbp - 16], rsi
	mov	qword ptr [rbp - 24], rdx
	mov	rdi, qword ptr [rbp - 8]
	mov	rsi, qword ptr [rbp - 16]
	mov	rdx, qword ptr [rbp - 24]
	call	__ZNSt3__16vectorINS0_IcNS_9allocatorIcEEEENS1_IS3_EEE21_ConstructTransactionC2ERS5_m
	add	rsp, 32
	pop	rbp
	ret
	.cfi_endproc
                                        ## -- End function
	.p2align	4, 0x90                         ## -- Begin function _ZNSt3__116allocator_traitsINS_9allocatorINS_6vectorIcNS1_IcEEEEEEE9constructIS4_JRKS4_EEEvRS5_PT_DpOT0_
__ZNSt3__116allocator_traitsINS_9allocatorINS_6vectorIcNS1_IcEEEEEEE9constructIS4_JRKS4_EEEvRS5_PT_DpOT0_: ## @_ZNSt3__116allocator_traitsINS_9allocatorINS_6vectorIcNS1_IcEEEEEEE9constructIS4_JRKS4_EEEvRS5_PT_DpOT0_
	.cfi_startproc
## %bb.0:
	push	rbp
	.cfi_def_cfa_offset 16
	.cfi_offset rbp, -16
	mov	rbp, rsp
	.cfi_def_cfa_register rbp
	sub	rsp, 64
	mov	qword ptr [rbp - 8], rdi
	mov	qword ptr [rbp - 16], rsi
	mov	qword ptr [rbp - 24], rdx
	mov	rdi, qword ptr [rbp - 8]
	mov	rsi, qword ptr [rbp - 16]
	mov	rax, qword ptr [rbp - 24]
	mov	qword ptr [rbp - 48], rdi       ## 8-byte Spill
	mov	rdi, rax
	mov	qword ptr [rbp - 56], rsi       ## 8-byte Spill
	call	__ZNSt3__1L7forwardIRKNS_6vectorIcNS_9allocatorIcEEEEEEOT_RNS_16remove_referenceIS7_E4typeE
	mov	rdi, qword ptr [rbp - 48]       ## 8-byte Reload
	mov	rsi, qword ptr [rbp - 56]       ## 8-byte Reload
	mov	rdx, rax
	call	__ZNSt3__116allocator_traitsINS_9allocatorINS_6vectorIcNS1_IcEEEEEEE11__constructIS4_JRKS4_EEEvNS_17integral_constantIbLb1EEERS5_PT_DpOT0_
	add	rsp, 64
	pop	rbp
	ret
	.cfi_endproc
                                        ## -- End function
	.globl	__ZNSt3__16vectorINS0_IcNS_9allocatorIcEEEENS1_IS3_EEE21_ConstructTransactionD1Ev ## -- Begin function _ZNSt3__16vectorINS0_IcNS_9allocatorIcEEEENS1_IS3_EEE21_ConstructTransactionD1Ev
	.weak_def_can_be_hidden	__ZNSt3__16vectorINS0_IcNS_9allocatorIcEEEENS1_IS3_EEE21_ConstructTransactionD1Ev
	.p2align	4, 0x90
__ZNSt3__16vectorINS0_IcNS_9allocatorIcEEEENS1_IS3_EEE21_ConstructTransactionD1Ev: ## @_ZNSt3__16vectorINS0_IcNS_9allocatorIcEEEENS1_IS3_EEE21_ConstructTransactionD1Ev
	.cfi_startproc
## %bb.0:
	push	rbp
	.cfi_def_cfa_offset 16
	.cfi_offset rbp, -16
	mov	rbp, rsp
	.cfi_def_cfa_register rbp
	sub	rsp, 16
	mov	qword ptr [rbp - 8], rdi
	mov	rdi, qword ptr [rbp - 8]
	call	__ZNSt3__16vectorINS0_IcNS_9allocatorIcEEEENS1_IS3_EEE21_ConstructTransactionD2Ev
	add	rsp, 16
	pop	rbp
	ret
	.cfi_endproc
                                        ## -- End function
	.globl	__ZNSt3__16vectorINS0_IcNS_9allocatorIcEEEENS1_IS3_EEE21_ConstructTransactionC2ERS5_m ## -- Begin function _ZNSt3__16vectorINS0_IcNS_9allocatorIcEEEENS1_IS3_EEE21_ConstructTransactionC2ERS5_m
	.weak_def_can_be_hidden	__ZNSt3__16vectorINS0_IcNS_9allocatorIcEEEENS1_IS3_EEE21_ConstructTransactionC2ERS5_m
	.p2align	4, 0x90
__ZNSt3__16vectorINS0_IcNS_9allocatorIcEEEENS1_IS3_EEE21_ConstructTransactionC2ERS5_m: ## @_ZNSt3__16vectorINS0_IcNS_9allocatorIcEEEENS1_IS3_EEE21_ConstructTransactionC2ERS5_m
	.cfi_startproc
## %bb.0:
	push	rbp
	.cfi_def_cfa_offset 16
	.cfi_offset rbp, -16
	mov	rbp, rsp
	.cfi_def_cfa_register rbp
	mov	qword ptr [rbp - 8], rdi
	mov	qword ptr [rbp - 16], rsi
	mov	qword ptr [rbp - 24], rdx
	mov	rax, qword ptr [rbp - 8]
	mov	rcx, qword ptr [rbp - 16]
	mov	qword ptr [rax], rcx
	mov	rcx, qword ptr [rbp - 16]
	mov	rcx, qword ptr [rcx + 8]
	mov	qword ptr [rax + 8], rcx
	mov	rcx, qword ptr [rbp - 16]
	mov	rcx, qword ptr [rcx + 8]
	imul	rdx, qword ptr [rbp - 24], 24
	add	rcx, rdx
	mov	qword ptr [rax + 16], rcx
	pop	rbp
	ret
	.cfi_endproc
                                        ## -- End function
	.p2align	4, 0x90                         ## -- Begin function _ZNSt3__116allocator_traitsINS_9allocatorINS_6vectorIcNS1_IcEEEEEEE11__constructIS4_JRKS4_EEEvNS_17integral_constantIbLb1EEERS5_PT_DpOT0_
__ZNSt3__116allocator_traitsINS_9allocatorINS_6vectorIcNS1_IcEEEEEEE11__constructIS4_JRKS4_EEEvNS_17integral_constantIbLb1EEERS5_PT_DpOT0_: ## @_ZNSt3__116allocator_traitsINS_9allocatorINS_6vectorIcNS1_IcEEEEEEE11__constructIS4_JRKS4_EEEvNS_17integral_constantIbLb1EEERS5_PT_DpOT0_
	.cfi_startproc
## %bb.0:
	push	rbp
	.cfi_def_cfa_offset 16
	.cfi_offset rbp, -16
	mov	rbp, rsp
	.cfi_def_cfa_register rbp
	sub	rsp, 48
	mov	qword ptr [rbp - 16], rdi
	mov	qword ptr [rbp - 24], rsi
	mov	qword ptr [rbp - 32], rdx
	mov	rdi, qword ptr [rbp - 16]
	mov	rsi, qword ptr [rbp - 24]
	mov	rax, qword ptr [rbp - 32]
	mov	qword ptr [rbp - 40], rdi       ## 8-byte Spill
	mov	rdi, rax
	mov	qword ptr [rbp - 48], rsi       ## 8-byte Spill
	call	__ZNSt3__1L7forwardIRKNS_6vectorIcNS_9allocatorIcEEEEEEOT_RNS_16remove_referenceIS7_E4typeE
	mov	rdi, qword ptr [rbp - 40]       ## 8-byte Reload
	mov	rsi, qword ptr [rbp - 48]       ## 8-byte Reload
	mov	rdx, rax
	call	__ZNSt3__19allocatorINS_6vectorIcNS0_IcEEEEE9constructIS3_JRKS3_EEEvPT_DpOT0_
	add	rsp, 48
	pop	rbp
	ret
	.cfi_endproc
                                        ## -- End function
	.p2align	4, 0x90                         ## -- Begin function _ZNSt3__1L7forwardIRKNS_6vectorIcNS_9allocatorIcEEEEEEOT_RNS_16remove_referenceIS7_E4typeE
__ZNSt3__1L7forwardIRKNS_6vectorIcNS_9allocatorIcEEEEEEOT_RNS_16remove_referenceIS7_E4typeE: ## @_ZNSt3__1L7forwardIRKNS_6vectorIcNS_9allocatorIcEEEEEEOT_RNS_16remove_referenceIS7_E4typeE
	.cfi_startproc
## %bb.0:
	push	rbp
	.cfi_def_cfa_offset 16
	.cfi_offset rbp, -16
	mov	rbp, rsp
	.cfi_def_cfa_register rbp
	mov	qword ptr [rbp - 8], rdi
	mov	rax, qword ptr [rbp - 8]
	pop	rbp
	ret
	.cfi_endproc
                                        ## -- End function
	.p2align	4, 0x90                         ## -- Begin function _ZNSt3__19allocatorINS_6vectorIcNS0_IcEEEEE9constructIS3_JRKS3_EEEvPT_DpOT0_
__ZNSt3__19allocatorINS_6vectorIcNS0_IcEEEEE9constructIS3_JRKS3_EEEvPT_DpOT0_: ## @_ZNSt3__19allocatorINS_6vectorIcNS0_IcEEEEE9constructIS3_JRKS3_EEEvPT_DpOT0_
	.cfi_startproc
## %bb.0:
	push	rbp
	.cfi_def_cfa_offset 16
	.cfi_offset rbp, -16
	mov	rbp, rsp
	.cfi_def_cfa_register rbp
	sub	rsp, 32
	mov	qword ptr [rbp - 8], rdi
	mov	qword ptr [rbp - 16], rsi
	mov	qword ptr [rbp - 24], rdx
	mov	rax, qword ptr [rbp - 16]
	mov	rdi, qword ptr [rbp - 24]
	mov	qword ptr [rbp - 32], rax       ## 8-byte Spill
	call	__ZNSt3__1L7forwardIRKNS_6vectorIcNS_9allocatorIcEEEEEEOT_RNS_16remove_referenceIS7_E4typeE
	mov	rdi, qword ptr [rbp - 32]       ## 8-byte Reload
	mov	rsi, rax
	call	__ZNSt3__16vectorIcNS_9allocatorIcEEEC1ERKS3_
	add	rsp, 32
	pop	rbp
	ret
	.cfi_endproc
                                        ## -- End function
	.globl	__ZNSt3__16vectorIcNS_9allocatorIcEEEC1ERKS3_ ## -- Begin function _ZNSt3__16vectorIcNS_9allocatorIcEEEC1ERKS3_
	.weak_def_can_be_hidden	__ZNSt3__16vectorIcNS_9allocatorIcEEEC1ERKS3_
	.p2align	4, 0x90
__ZNSt3__16vectorIcNS_9allocatorIcEEEC1ERKS3_: ## @_ZNSt3__16vectorIcNS_9allocatorIcEEEC1ERKS3_
	.cfi_startproc
## %bb.0:
	push	rbp
	.cfi_def_cfa_offset 16
	.cfi_offset rbp, -16
	mov	rbp, rsp
	.cfi_def_cfa_register rbp
	sub	rsp, 16
	mov	qword ptr [rbp - 8], rdi
	mov	qword ptr [rbp - 16], rsi
	mov	rdi, qword ptr [rbp - 8]
	mov	rsi, qword ptr [rbp - 16]
	call	__ZNSt3__16vectorIcNS_9allocatorIcEEEC2ERKS3_
	add	rsp, 16
	pop	rbp
	ret
	.cfi_endproc
                                        ## -- End function
	.globl	__ZNSt3__16vectorIcNS_9allocatorIcEEEC2ERKS3_ ## -- Begin function _ZNSt3__16vectorIcNS_9allocatorIcEEEC2ERKS3_
	.weak_def_can_be_hidden	__ZNSt3__16vectorIcNS_9allocatorIcEEEC2ERKS3_
	.p2align	4, 0x90
__ZNSt3__16vectorIcNS_9allocatorIcEEEC2ERKS3_: ## @_ZNSt3__16vectorIcNS_9allocatorIcEEEC2ERKS3_
Lfunc_begin13:
	.cfi_startproc
	.cfi_personality 155, ___gxx_personality_v0
	.cfi_lsda 16, Lexception13
## %bb.0:
	push	rbp
	.cfi_def_cfa_offset 16
	.cfi_offset rbp, -16
	mov	rbp, rsp
	.cfi_def_cfa_register rbp
	sub	rsp, 80
	mov	qword ptr [rbp - 8], rdi
	mov	qword ptr [rbp - 16], rsi
	mov	rax, qword ptr [rbp - 8]
	mov	rcx, rax
	mov	rdx, qword ptr [rbp - 16]
	mov	rdi, rdx
	mov	qword ptr [rbp - 64], rax       ## 8-byte Spill
	mov	qword ptr [rbp - 72], rcx       ## 8-byte Spill
	call	__ZNKSt3__113__vector_baseIcNS_9allocatorIcEEE7__allocEv
	mov	rdi, rax
	call	__ZNSt3__116allocator_traitsINS_9allocatorIcEEE37select_on_container_copy_constructionERKS2_
	mov	rdi, qword ptr [rbp - 72]       ## 8-byte Reload
	lea	rsi, [rbp - 24]
	call	__ZNSt3__113__vector_baseIcNS_9allocatorIcEEEC2EOS2_
	mov	rdi, qword ptr [rbp - 16]
	call	__ZNKSt3__16vectorIcNS_9allocatorIcEEE4sizeEv
	mov	qword ptr [rbp - 40], rax
	cmp	qword ptr [rbp - 40], 0
	jbe	LBB122_5
## %bb.1:
	mov	rsi, qword ptr [rbp - 40]
Ltmp96:
	mov	rdi, qword ptr [rbp - 64]       ## 8-byte Reload
	call	__ZNSt3__16vectorIcNS_9allocatorIcEEE11__vallocateEm
Ltmp97:
	jmp	LBB122_2
LBB122_2:
	mov	rax, qword ptr [rbp - 16]
	mov	rsi, qword ptr [rax]
	mov	rdx, qword ptr [rax + 8]
	mov	rcx, qword ptr [rbp - 40]
Ltmp98:
	mov	rdi, qword ptr [rbp - 64]       ## 8-byte Reload
	call	__ZNSt3__16vectorIcNS_9allocatorIcEEE18__construct_at_endIPcEENS_9enable_ifIXsr27__is_cpp17_forward_iteratorIT_EE5valueEvE4typeES7_S7_m
Ltmp99:
	jmp	LBB122_3
LBB122_3:
	jmp	LBB122_5
LBB122_4:
Ltmp100:
                                        ## kill: def $edx killed $edx killed $rdx
	mov	qword ptr [rbp - 48], rax
	mov	dword ptr [rbp - 52], edx
	mov	rax, qword ptr [rbp - 64]       ## 8-byte Reload
	mov	rdi, rax
	call	__ZNSt3__113__vector_baseIcNS_9allocatorIcEEED2Ev
	jmp	LBB122_6
LBB122_5:
	add	rsp, 80
	pop	rbp
	ret
LBB122_6:
	mov	rdi, qword ptr [rbp - 48]
	call	__Unwind_Resume
	ud2
Lfunc_end13:
	.cfi_endproc
	.section	__TEXT,__gcc_except_tab
	.p2align	2
GCC_except_table122:
Lexception13:
	.byte	255                             ## @LPStart Encoding = omit
	.byte	255                             ## @TType Encoding = omit
	.byte	1                               ## Call site Encoding = uleb128
	.uleb128 Lcst_end13-Lcst_begin13
Lcst_begin13:
	.uleb128 Lfunc_begin13-Lfunc_begin13    ## >> Call Site 1 <<
	.uleb128 Ltmp96-Lfunc_begin13           ##   Call between Lfunc_begin13 and Ltmp96
	.byte	0                               ##     has no landing pad
	.byte	0                               ##   On action: cleanup
	.uleb128 Ltmp96-Lfunc_begin13           ## >> Call Site 2 <<
	.uleb128 Ltmp99-Ltmp96                  ##   Call between Ltmp96 and Ltmp99
	.uleb128 Ltmp100-Lfunc_begin13          ##     jumps to Ltmp100
	.byte	0                               ##   On action: cleanup
	.uleb128 Ltmp99-Lfunc_begin13           ## >> Call Site 3 <<
	.uleb128 Lfunc_end13-Ltmp99             ##   Call between Ltmp99 and Lfunc_end13
	.byte	0                               ##     has no landing pad
	.byte	0                               ##   On action: cleanup
Lcst_end13:
	.p2align	2
                                        ## -- End function
	.section	__TEXT,__text,regular,pure_instructions
	.p2align	4, 0x90                         ## -- Begin function _ZNSt3__116allocator_traitsINS_9allocatorIcEEE37select_on_container_copy_constructionERKS2_
__ZNSt3__116allocator_traitsINS_9allocatorIcEEE37select_on_container_copy_constructionERKS2_: ## @_ZNSt3__116allocator_traitsINS_9allocatorIcEEE37select_on_container_copy_constructionERKS2_
	.cfi_startproc
## %bb.0:
	push	rbp
	.cfi_def_cfa_offset 16
	.cfi_offset rbp, -16
	mov	rbp, rsp
	.cfi_def_cfa_register rbp
	sub	rsp, 32
	mov	qword ptr [rbp - 8], rdi
	mov	rdi, qword ptr [rbp - 8]
	call	__ZNSt3__116allocator_traitsINS_9allocatorIcEEE39__select_on_container_copy_constructionENS_17integral_constantIbLb0EEERKS2_
	add	rsp, 32
	pop	rbp
	ret
	.cfi_endproc
                                        ## -- End function
	.p2align	4, 0x90                         ## -- Begin function _ZNSt3__113__vector_baseIcNS_9allocatorIcEEEC2EOS2_
__ZNSt3__113__vector_baseIcNS_9allocatorIcEEEC2EOS2_: ## @_ZNSt3__113__vector_baseIcNS_9allocatorIcEEEC2EOS2_
Lfunc_begin14:
	.cfi_startproc
	.cfi_personality 155, ___gxx_personality_v0
	.cfi_lsda 16, Lexception14
## %bb.0:
	push	rbp
	.cfi_def_cfa_offset 16
	.cfi_offset rbp, -16
	mov	rbp, rsp
	.cfi_def_cfa_register rbp
	sub	rsp, 48
	mov	qword ptr [rbp - 8], rdi
	mov	qword ptr [rbp - 16], rsi
	mov	rax, qword ptr [rbp - 8]
	mov	rdi, rax
	mov	qword ptr [rbp - 32], rax       ## 8-byte Spill
	call	__ZNSt3__120__vector_base_commonILb1EEC2Ev
	mov	rax, qword ptr [rbp - 32]       ## 8-byte Reload
	mov	qword ptr [rax], 0
	mov	qword ptr [rax + 8], 0
	add	rax, 16
	mov	qword ptr [rbp - 24], 0
	mov	rdi, qword ptr [rbp - 16]
	mov	qword ptr [rbp - 40], rax       ## 8-byte Spill
	call	__ZNSt3__1L4moveIRNS_9allocatorIcEEEEONS_16remove_referenceIT_E4typeEOS5_
Ltmp101:
	lea	rsi, [rbp - 24]
	mov	rdi, qword ptr [rbp - 40]       ## 8-byte Reload
	mov	rdx, rax
	call	__ZNSt3__117__compressed_pairIPcNS_9allocatorIcEEEC1IDnS3_EEOT_OT0_
Ltmp102:
	jmp	LBB124_1
LBB124_1:
	add	rsp, 48
	pop	rbp
	ret
LBB124_2:
Ltmp103:
	mov	rdi, rax
	mov	qword ptr [rbp - 48], rdx       ## 8-byte Spill
	call	___clang_call_terminate
Lfunc_end14:
	.cfi_endproc
	.section	__TEXT,__gcc_except_tab
	.p2align	2
GCC_except_table124:
Lexception14:
	.byte	255                             ## @LPStart Encoding = omit
	.byte	155                             ## @TType Encoding = indirect pcrel sdata4
	.uleb128 Lttbase6-Lttbaseref6
Lttbaseref6:
	.byte	1                               ## Call site Encoding = uleb128
	.uleb128 Lcst_end14-Lcst_begin14
Lcst_begin14:
	.uleb128 Ltmp101-Lfunc_begin14          ## >> Call Site 1 <<
	.uleb128 Ltmp102-Ltmp101                ##   Call between Ltmp101 and Ltmp102
	.uleb128 Ltmp103-Lfunc_begin14          ##     jumps to Ltmp103
	.byte	1                               ##   On action: 1
Lcst_end14:
	.byte	1                               ## >> Action Record 1 <<
                                        ##   Catch TypeInfo 1
	.byte	0                               ##   No further actions
	.p2align	2
                                        ## >> Catch TypeInfos <<
	.long	0                               ## TypeInfo 1
Lttbase6:
	.p2align	2
                                        ## -- End function
	.section	__TEXT,__text,regular,pure_instructions
	.p2align	4, 0x90                         ## -- Begin function _ZNKSt3__16vectorIcNS_9allocatorIcEEE4sizeEv
__ZNKSt3__16vectorIcNS_9allocatorIcEEE4sizeEv: ## @_ZNKSt3__16vectorIcNS_9allocatorIcEEE4sizeEv
	.cfi_startproc
## %bb.0:
	push	rbp
	.cfi_def_cfa_offset 16
	.cfi_offset rbp, -16
	mov	rbp, rsp
	.cfi_def_cfa_register rbp
	mov	qword ptr [rbp - 8], rdi
	mov	rax, qword ptr [rbp - 8]
	mov	rcx, qword ptr [rax + 8]
	mov	rax, qword ptr [rax]
	sub	rcx, rax
	mov	rax, rcx
	pop	rbp
	ret
	.cfi_endproc
                                        ## -- End function
	.globl	__ZNSt3__16vectorIcNS_9allocatorIcEEE18__construct_at_endIPcEENS_9enable_ifIXsr27__is_cpp17_forward_iteratorIT_EE5valueEvE4typeES7_S7_m ## -- Begin function _ZNSt3__16vectorIcNS_9allocatorIcEEE18__construct_at_endIPcEENS_9enable_ifIXsr27__is_cpp17_forward_iteratorIT_EE5valueEvE4typeES7_S7_m
	.weak_definition	__ZNSt3__16vectorIcNS_9allocatorIcEEE18__construct_at_endIPcEENS_9enable_ifIXsr27__is_cpp17_forward_iteratorIT_EE5valueEvE4typeES7_S7_m
	.p2align	4, 0x90
__ZNSt3__16vectorIcNS_9allocatorIcEEE18__construct_at_endIPcEENS_9enable_ifIXsr27__is_cpp17_forward_iteratorIT_EE5valueEvE4typeES7_S7_m: ## @_ZNSt3__16vectorIcNS_9allocatorIcEEE18__construct_at_endIPcEENS_9enable_ifIXsr27__is_cpp17_forward_iteratorIT_EE5valueEvE4typeES7_S7_m
Lfunc_begin15:
	.cfi_startproc
	.cfi_personality 155, ___gxx_personality_v0
	.cfi_lsda 16, Lexception15
## %bb.0:
	push	rbp
	.cfi_def_cfa_offset 16
	.cfi_offset rbp, -16
	mov	rbp, rsp
	.cfi_def_cfa_register rbp
	sub	rsp, 80
	mov	qword ptr [rbp - 8], rdi
	mov	qword ptr [rbp - 16], rsi
	mov	qword ptr [rbp - 24], rdx
	mov	qword ptr [rbp - 32], rcx
	mov	rax, qword ptr [rbp - 8]
	mov	rdx, qword ptr [rbp - 32]
	lea	rdi, [rbp - 56]
	mov	rsi, rax
	mov	qword ptr [rbp - 80], rax       ## 8-byte Spill
	call	__ZNSt3__16vectorIcNS_9allocatorIcEEE21_ConstructTransactionC1ERS3_m
	mov	rdi, qword ptr [rbp - 80]       ## 8-byte Reload
	call	__ZNSt3__113__vector_baseIcNS_9allocatorIcEEE7__allocEv
	mov	rsi, qword ptr [rbp - 16]
	mov	rdx, qword ptr [rbp - 24]
	lea	rcx, [rbp - 48]
Ltmp104:
	mov	rdi, rax
	call	__ZNSt3__116allocator_traitsINS_9allocatorIcEEE25__construct_range_forwardIccccEENS_9enable_ifIXaaaasr31is_trivially_copy_constructibleIT0_EE5valuesr7is_sameIT1_T2_EE5valueooL_ZNS_17integral_constantIbLb1EE5valueEEntsr15__has_constructIS2_PS6_RT_EE5valueEvE4typeERS2_PSC_SH_RSB_
Ltmp105:
	jmp	LBB126_1
LBB126_1:
	lea	rdi, [rbp - 56]
	call	__ZNSt3__16vectorIcNS_9allocatorIcEEE21_ConstructTransactionD1Ev
	add	rsp, 80
	pop	rbp
	ret
LBB126_2:
Ltmp106:
                                        ## kill: def $edx killed $edx killed $rdx
	mov	qword ptr [rbp - 64], rax
	mov	dword ptr [rbp - 68], edx
	lea	rdi, [rbp - 56]
	call	__ZNSt3__16vectorIcNS_9allocatorIcEEE21_ConstructTransactionD1Ev
## %bb.3:
	mov	rdi, qword ptr [rbp - 64]
	call	__Unwind_Resume
	ud2
Lfunc_end15:
	.cfi_endproc
	.section	__TEXT,__gcc_except_tab
	.p2align	2
GCC_except_table126:
Lexception15:
	.byte	255                             ## @LPStart Encoding = omit
	.byte	255                             ## @TType Encoding = omit
	.byte	1                               ## Call site Encoding = uleb128
	.uleb128 Lcst_end15-Lcst_begin15
Lcst_begin15:
	.uleb128 Lfunc_begin15-Lfunc_begin15    ## >> Call Site 1 <<
	.uleb128 Ltmp104-Lfunc_begin15          ##   Call between Lfunc_begin15 and Ltmp104
	.byte	0                               ##     has no landing pad
	.byte	0                               ##   On action: cleanup
	.uleb128 Ltmp104-Lfunc_begin15          ## >> Call Site 2 <<
	.uleb128 Ltmp105-Ltmp104                ##   Call between Ltmp104 and Ltmp105
	.uleb128 Ltmp106-Lfunc_begin15          ##     jumps to Ltmp106
	.byte	0                               ##   On action: cleanup
	.uleb128 Ltmp105-Lfunc_begin15          ## >> Call Site 3 <<
	.uleb128 Lfunc_end15-Ltmp105            ##   Call between Ltmp105 and Lfunc_end15
	.byte	0                               ##     has no landing pad
	.byte	0                               ##   On action: cleanup
Lcst_end15:
	.p2align	2
                                        ## -- End function
	.section	__TEXT,__text,regular,pure_instructions
	.p2align	4, 0x90                         ## -- Begin function _ZNSt3__116allocator_traitsINS_9allocatorIcEEE39__select_on_container_copy_constructionENS_17integral_constantIbLb0EEERKS2_
__ZNSt3__116allocator_traitsINS_9allocatorIcEEE39__select_on_container_copy_constructionENS_17integral_constantIbLb0EEERKS2_: ## @_ZNSt3__116allocator_traitsINS_9allocatorIcEEE39__select_on_container_copy_constructionENS_17integral_constantIbLb0EEERKS2_
	.cfi_startproc
## %bb.0:
	push	rbp
	.cfi_def_cfa_offset 16
	.cfi_offset rbp, -16
	mov	rbp, rsp
	.cfi_def_cfa_register rbp
	mov	qword ptr [rbp - 16], rdi
	pop	rbp
	ret
	.cfi_endproc
                                        ## -- End function
	.p2align	4, 0x90                         ## -- Begin function _ZNSt3__1L4moveIRNS_9allocatorIcEEEEONS_16remove_referenceIT_E4typeEOS5_
__ZNSt3__1L4moveIRNS_9allocatorIcEEEEONS_16remove_referenceIT_E4typeEOS5_: ## @_ZNSt3__1L4moveIRNS_9allocatorIcEEEEONS_16remove_referenceIT_E4typeEOS5_
	.cfi_startproc
## %bb.0:
	push	rbp
	.cfi_def_cfa_offset 16
	.cfi_offset rbp, -16
	mov	rbp, rsp
	.cfi_def_cfa_register rbp
	mov	qword ptr [rbp - 8], rdi
	mov	rax, qword ptr [rbp - 8]
	pop	rbp
	ret
	.cfi_endproc
                                        ## -- End function
	.p2align	4, 0x90                         ## -- Begin function _ZNSt3__117__compressed_pairIPcNS_9allocatorIcEEEC1IDnS3_EEOT_OT0_
__ZNSt3__117__compressed_pairIPcNS_9allocatorIcEEEC1IDnS3_EEOT_OT0_: ## @_ZNSt3__117__compressed_pairIPcNS_9allocatorIcEEEC1IDnS3_EEOT_OT0_
	.cfi_startproc
## %bb.0:
	push	rbp
	.cfi_def_cfa_offset 16
	.cfi_offset rbp, -16
	mov	rbp, rsp
	.cfi_def_cfa_register rbp
	sub	rsp, 32
	mov	qword ptr [rbp - 8], rdi
	mov	qword ptr [rbp - 16], rsi
	mov	qword ptr [rbp - 24], rdx
	mov	rdi, qword ptr [rbp - 8]
	mov	rsi, qword ptr [rbp - 16]
	mov	rdx, qword ptr [rbp - 24]
	call	__ZNSt3__117__compressed_pairIPcNS_9allocatorIcEEEC2IDnS3_EEOT_OT0_
	add	rsp, 32
	pop	rbp
	ret
	.cfi_endproc
                                        ## -- End function
	.p2align	4, 0x90                         ## -- Begin function _ZNSt3__117__compressed_pairIPcNS_9allocatorIcEEEC2IDnS3_EEOT_OT0_
__ZNSt3__117__compressed_pairIPcNS_9allocatorIcEEEC2IDnS3_EEOT_OT0_: ## @_ZNSt3__117__compressed_pairIPcNS_9allocatorIcEEEC2IDnS3_EEOT_OT0_
	.cfi_startproc
## %bb.0:
	push	rbp
	.cfi_def_cfa_offset 16
	.cfi_offset rbp, -16
	mov	rbp, rsp
	.cfi_def_cfa_register rbp
	sub	rsp, 48
	mov	qword ptr [rbp - 8], rdi
	mov	qword ptr [rbp - 16], rsi
	mov	qword ptr [rbp - 24], rdx
	mov	rax, qword ptr [rbp - 8]
	mov	rcx, rax
	mov	rdi, qword ptr [rbp - 16]
	mov	qword ptr [rbp - 32], rax       ## 8-byte Spill
	mov	qword ptr [rbp - 40], rcx       ## 8-byte Spill
	call	__ZNSt3__1L7forwardIDnEEOT_RNS_16remove_referenceIS1_E4typeE
	mov	rdi, qword ptr [rbp - 40]       ## 8-byte Reload
	mov	rsi, rax
	call	__ZNSt3__122__compressed_pair_elemIPcLi0ELb0EEC2IDnvEEOT_
	mov	rax, qword ptr [rbp - 32]       ## 8-byte Reload
	mov	rdi, qword ptr [rbp - 24]
	mov	qword ptr [rbp - 48], rax       ## 8-byte Spill
	call	__ZNSt3__1L7forwardINS_9allocatorIcEEEEOT_RNS_16remove_referenceIS3_E4typeE
	mov	rdi, qword ptr [rbp - 48]       ## 8-byte Reload
	mov	rsi, rax
	call	__ZNSt3__122__compressed_pair_elemINS_9allocatorIcEELi1ELb1EEC2IS2_vEEOT_
	add	rsp, 48
	pop	rbp
	ret
	.cfi_endproc
                                        ## -- End function
	.p2align	4, 0x90                         ## -- Begin function _ZNSt3__1L7forwardINS_9allocatorIcEEEEOT_RNS_16remove_referenceIS3_E4typeE
__ZNSt3__1L7forwardINS_9allocatorIcEEEEOT_RNS_16remove_referenceIS3_E4typeE: ## @_ZNSt3__1L7forwardINS_9allocatorIcEEEEOT_RNS_16remove_referenceIS3_E4typeE
	.cfi_startproc
## %bb.0:
	push	rbp
	.cfi_def_cfa_offset 16
	.cfi_offset rbp, -16
	mov	rbp, rsp
	.cfi_def_cfa_register rbp
	mov	qword ptr [rbp - 8], rdi
	mov	rax, qword ptr [rbp - 8]
	pop	rbp
	ret
	.cfi_endproc
                                        ## -- End function
	.p2align	4, 0x90                         ## -- Begin function _ZNSt3__122__compressed_pair_elemINS_9allocatorIcEELi1ELb1EEC2IS2_vEEOT_
__ZNSt3__122__compressed_pair_elemINS_9allocatorIcEELi1ELb1EEC2IS2_vEEOT_: ## @_ZNSt3__122__compressed_pair_elemINS_9allocatorIcEELi1ELb1EEC2IS2_vEEOT_
	.cfi_startproc
## %bb.0:
	push	rbp
	.cfi_def_cfa_offset 16
	.cfi_offset rbp, -16
	mov	rbp, rsp
	.cfi_def_cfa_register rbp
	sub	rsp, 16
	mov	qword ptr [rbp - 8], rdi
	mov	qword ptr [rbp - 16], rsi
	mov	rdi, qword ptr [rbp - 16]
	call	__ZNSt3__1L7forwardINS_9allocatorIcEEEEOT_RNS_16remove_referenceIS3_E4typeE
	add	rsp, 16
	pop	rbp
	ret
	.cfi_endproc
                                        ## -- End function
	.p2align	4, 0x90                         ## -- Begin function _ZNSt3__116allocator_traitsINS_9allocatorIcEEE25__construct_range_forwardIccccEENS_9enable_ifIXaaaasr31is_trivially_copy_constructibleIT0_EE5valuesr7is_sameIT1_T2_EE5valueooL_ZNS_17integral_constantIbLb1EE5valueEEntsr15__has_constructIS2_PS6_RT_EE5valueEvE4typeERS2_PSC_SH_RSB_
__ZNSt3__116allocator_traitsINS_9allocatorIcEEE25__construct_range_forwardIccccEENS_9enable_ifIXaaaasr31is_trivially_copy_constructibleIT0_EE5valuesr7is_sameIT1_T2_EE5valueooL_ZNS_17integral_constantIbLb1EE5valueEEntsr15__has_constructIS2_PS6_RT_EE5valueEvE4typeERS2_PSC_SH_RSB_: ## @_ZNSt3__116allocator_traitsINS_9allocatorIcEEE25__construct_range_forwardIccccEENS_9enable_ifIXaaaasr31is_trivially_copy_constructibleIT0_EE5valuesr7is_sameIT1_T2_EE5valueooL_ZNS_17integral_constantIbLb1EE5valueEEntsr15__has_constructIS2_PS6_RT_EE5valueEvE4typeERS2_PSC_SH_RSB_
	.cfi_startproc
## %bb.0:
	push	rbp
	.cfi_def_cfa_offset 16
	.cfi_offset rbp, -16
	mov	rbp, rsp
	.cfi_def_cfa_register rbp
	sub	rsp, 48
	mov	qword ptr [rbp - 8], rdi
	mov	qword ptr [rbp - 16], rsi
	mov	qword ptr [rbp - 24], rdx
	mov	qword ptr [rbp - 32], rcx
	mov	rax, qword ptr [rbp - 24]
	mov	rcx, qword ptr [rbp - 16]
	sub	rax, rcx
	mov	qword ptr [rbp - 40], rax
	cmp	qword ptr [rbp - 40], 0
	jle	LBB133_2
## %bb.1:
	mov	rax, qword ptr [rbp - 32]
	mov	rdi, qword ptr [rax]
	mov	rsi, qword ptr [rbp - 16]
	mov	rax, qword ptr [rbp - 40]
	shl	rax, 0
	mov	rdx, rax
	call	_memcpy
	mov	rax, qword ptr [rbp - 40]
	mov	rcx, qword ptr [rbp - 32]
	add	rax, qword ptr [rcx]
	mov	qword ptr [rcx], rax
LBB133_2:
	add	rsp, 48
	pop	rbp
	ret
	.cfi_endproc
                                        ## -- End function
	.globl	__ZNSt3__16vectorINS0_IcNS_9allocatorIcEEEENS1_IS3_EEE21_ConstructTransactionD2Ev ## -- Begin function _ZNSt3__16vectorINS0_IcNS_9allocatorIcEEEENS1_IS3_EEE21_ConstructTransactionD2Ev
	.weak_def_can_be_hidden	__ZNSt3__16vectorINS0_IcNS_9allocatorIcEEEENS1_IS3_EEE21_ConstructTransactionD2Ev
	.p2align	4, 0x90
__ZNSt3__16vectorINS0_IcNS_9allocatorIcEEEENS1_IS3_EEE21_ConstructTransactionD2Ev: ## @_ZNSt3__16vectorINS0_IcNS_9allocatorIcEEEENS1_IS3_EEE21_ConstructTransactionD2Ev
	.cfi_startproc
## %bb.0:
	push	rbp
	.cfi_def_cfa_offset 16
	.cfi_offset rbp, -16
	mov	rbp, rsp
	.cfi_def_cfa_register rbp
	mov	qword ptr [rbp - 8], rdi
	mov	rax, qword ptr [rbp - 8]
	mov	rcx, qword ptr [rax + 8]
	mov	rax, qword ptr [rax]
	mov	qword ptr [rax + 8], rcx
	pop	rbp
	ret
	.cfi_endproc
                                        ## -- End function
	.p2align	4, 0x90                         ## -- Begin function _ZNSt3__113__vector_baseINS_6vectorIcNS_9allocatorIcEEEENS2_IS4_EEE5clearEv
__ZNSt3__113__vector_baseINS_6vectorIcNS_9allocatorIcEEEENS2_IS4_EEE5clearEv: ## @_ZNSt3__113__vector_baseINS_6vectorIcNS_9allocatorIcEEEENS2_IS4_EEE5clearEv
	.cfi_startproc
## %bb.0:
	push	rbp
	.cfi_def_cfa_offset 16
	.cfi_offset rbp, -16
	mov	rbp, rsp
	.cfi_def_cfa_register rbp
	sub	rsp, 16
	mov	qword ptr [rbp - 8], rdi
	mov	rax, qword ptr [rbp - 8]
	mov	rsi, qword ptr [rax]
	mov	rdi, rax
	call	__ZNSt3__113__vector_baseINS_6vectorIcNS_9allocatorIcEEEENS2_IS4_EEE17__destruct_at_endEPS4_
	add	rsp, 16
	pop	rbp
	ret
	.cfi_endproc
                                        ## -- End function
	.p2align	4, 0x90                         ## -- Begin function _ZNSt3__116allocator_traitsINS_9allocatorINS_6vectorIcNS1_IcEEEEEEE10deallocateERS5_PS4_m
__ZNSt3__116allocator_traitsINS_9allocatorINS_6vectorIcNS1_IcEEEEEEE10deallocateERS5_PS4_m: ## @_ZNSt3__116allocator_traitsINS_9allocatorINS_6vectorIcNS1_IcEEEEEEE10deallocateERS5_PS4_m
	.cfi_startproc
## %bb.0:
	push	rbp
	.cfi_def_cfa_offset 16
	.cfi_offset rbp, -16
	mov	rbp, rsp
	.cfi_def_cfa_register rbp
	sub	rsp, 32
	mov	qword ptr [rbp - 8], rdi
	mov	qword ptr [rbp - 16], rsi
	mov	qword ptr [rbp - 24], rdx
	mov	rdi, qword ptr [rbp - 8]
	mov	rsi, qword ptr [rbp - 16]
	mov	rdx, qword ptr [rbp - 24]
	call	__ZNSt3__19allocatorINS_6vectorIcNS0_IcEEEEE10deallocateEPS3_m
	add	rsp, 32
	pop	rbp
	ret
	.cfi_endproc
                                        ## -- End function
	.p2align	4, 0x90                         ## -- Begin function _ZNSt3__113__vector_baseINS_6vectorIcNS_9allocatorIcEEEENS2_IS4_EEE17__destruct_at_endEPS4_
__ZNSt3__113__vector_baseINS_6vectorIcNS_9allocatorIcEEEENS2_IS4_EEE17__destruct_at_endEPS4_: ## @_ZNSt3__113__vector_baseINS_6vectorIcNS_9allocatorIcEEEENS2_IS4_EEE17__destruct_at_endEPS4_
Lfunc_begin16:
	.cfi_startproc
	.cfi_personality 155, ___gxx_personality_v0
	.cfi_lsda 16, Lexception16
## %bb.0:
	push	rbp
	.cfi_def_cfa_offset 16
	.cfi_offset rbp, -16
	mov	rbp, rsp
	.cfi_def_cfa_register rbp
	sub	rsp, 48
	mov	qword ptr [rbp - 8], rdi
	mov	qword ptr [rbp - 16], rsi
	mov	rax, qword ptr [rbp - 8]
	mov	rcx, qword ptr [rax + 8]
	mov	qword ptr [rbp - 24], rcx
	mov	qword ptr [rbp - 32], rax       ## 8-byte Spill
LBB137_1:                               ## =>This Inner Loop Header: Depth=1
	mov	rax, qword ptr [rbp - 16]
	cmp	rax, qword ptr [rbp - 24]
	je	LBB137_4
## %bb.2:                               ##   in Loop: Header=BB137_1 Depth=1
	mov	rdi, qword ptr [rbp - 32]       ## 8-byte Reload
	call	__ZNSt3__113__vector_baseINS_6vectorIcNS_9allocatorIcEEEENS2_IS4_EEE7__allocEv
	mov	rcx, qword ptr [rbp - 24]
	add	rcx, -24
	mov	qword ptr [rbp - 24], rcx
	mov	rdi, rcx
	mov	qword ptr [rbp - 40], rax       ## 8-byte Spill
	call	__ZNSt3__1L12__to_addressINS_6vectorIcNS_9allocatorIcEEEEEEPT_S6_
Ltmp107:
	mov	rdi, qword ptr [rbp - 40]       ## 8-byte Reload
	mov	rsi, rax
	call	__ZNSt3__116allocator_traitsINS_9allocatorINS_6vectorIcNS1_IcEEEEEEE7destroyIS4_EEvRS5_PT_
Ltmp108:
	jmp	LBB137_3
LBB137_3:                               ##   in Loop: Header=BB137_1 Depth=1
	jmp	LBB137_1
LBB137_4:
	mov	rax, qword ptr [rbp - 16]
	mov	rcx, qword ptr [rbp - 32]       ## 8-byte Reload
	mov	qword ptr [rcx + 8], rax
	add	rsp, 48
	pop	rbp
	ret
LBB137_5:
Ltmp109:
	mov	rdi, rax
	mov	qword ptr [rbp - 48], rdx       ## 8-byte Spill
	call	___clang_call_terminate
Lfunc_end16:
	.cfi_endproc
	.section	__TEXT,__gcc_except_tab
	.p2align	2
GCC_except_table137:
Lexception16:
	.byte	255                             ## @LPStart Encoding = omit
	.byte	155                             ## @TType Encoding = indirect pcrel sdata4
	.uleb128 Lttbase7-Lttbaseref7
Lttbaseref7:
	.byte	1                               ## Call site Encoding = uleb128
	.uleb128 Lcst_end16-Lcst_begin16
Lcst_begin16:
	.uleb128 Ltmp107-Lfunc_begin16          ## >> Call Site 1 <<
	.uleb128 Ltmp108-Ltmp107                ##   Call between Ltmp107 and Ltmp108
	.uleb128 Ltmp109-Lfunc_begin16          ##     jumps to Ltmp109
	.byte	1                               ##   On action: 1
Lcst_end16:
	.byte	1                               ## >> Action Record 1 <<
                                        ##   Catch TypeInfo 1
	.byte	0                               ##   No further actions
	.p2align	2
                                        ## >> Catch TypeInfos <<
	.long	0                               ## TypeInfo 1
Lttbase7:
	.p2align	2
                                        ## -- End function
	.section	__TEXT,__text,regular,pure_instructions
	.p2align	4, 0x90                         ## -- Begin function _ZNSt3__116allocator_traitsINS_9allocatorINS_6vectorIcNS1_IcEEEEEEE7destroyIS4_EEvRS5_PT_
__ZNSt3__116allocator_traitsINS_9allocatorINS_6vectorIcNS1_IcEEEEEEE7destroyIS4_EEvRS5_PT_: ## @_ZNSt3__116allocator_traitsINS_9allocatorINS_6vectorIcNS1_IcEEEEEEE7destroyIS4_EEvRS5_PT_
	.cfi_startproc
## %bb.0:
	push	rbp
	.cfi_def_cfa_offset 16
	.cfi_offset rbp, -16
	mov	rbp, rsp
	.cfi_def_cfa_register rbp
	sub	rsp, 32
	mov	qword ptr [rbp - 8], rdi
	mov	qword ptr [rbp - 16], rsi
	mov	rdi, qword ptr [rbp - 8]
	mov	rsi, qword ptr [rbp - 16]
	call	__ZNSt3__116allocator_traitsINS_9allocatorINS_6vectorIcNS1_IcEEEEEEE9__destroyIS4_EEvNS_17integral_constantIbLb1EEERS5_PT_
	add	rsp, 32
	pop	rbp
	ret
	.cfi_endproc
                                        ## -- End function
	.p2align	4, 0x90                         ## -- Begin function _ZNSt3__116allocator_traitsINS_9allocatorINS_6vectorIcNS1_IcEEEEEEE9__destroyIS4_EEvNS_17integral_constantIbLb1EEERS5_PT_
__ZNSt3__116allocator_traitsINS_9allocatorINS_6vectorIcNS1_IcEEEEEEE9__destroyIS4_EEvNS_17integral_constantIbLb1EEERS5_PT_: ## @_ZNSt3__116allocator_traitsINS_9allocatorINS_6vectorIcNS1_IcEEEEEEE9__destroyIS4_EEvNS_17integral_constantIbLb1EEERS5_PT_
	.cfi_startproc
## %bb.0:
	push	rbp
	.cfi_def_cfa_offset 16
	.cfi_offset rbp, -16
	mov	rbp, rsp
	.cfi_def_cfa_register rbp
	sub	rsp, 32
	mov	qword ptr [rbp - 16], rdi
	mov	qword ptr [rbp - 24], rsi
	mov	rdi, qword ptr [rbp - 16]
	mov	rsi, qword ptr [rbp - 24]
	call	__ZNSt3__19allocatorINS_6vectorIcNS0_IcEEEEE7destroyEPS3_
	add	rsp, 32
	pop	rbp
	ret
	.cfi_endproc
                                        ## -- End function
	.p2align	4, 0x90                         ## -- Begin function _ZNSt3__19allocatorINS_6vectorIcNS0_IcEEEEE7destroyEPS3_
__ZNSt3__19allocatorINS_6vectorIcNS0_IcEEEEE7destroyEPS3_: ## @_ZNSt3__19allocatorINS_6vectorIcNS0_IcEEEEE7destroyEPS3_
	.cfi_startproc
## %bb.0:
	push	rbp
	.cfi_def_cfa_offset 16
	.cfi_offset rbp, -16
	mov	rbp, rsp
	.cfi_def_cfa_register rbp
	sub	rsp, 16
	mov	qword ptr [rbp - 8], rdi
	mov	qword ptr [rbp - 16], rsi
	mov	rdi, qword ptr [rbp - 16]
	call	__ZNSt3__16vectorIcNS_9allocatorIcEEED1Ev
	add	rsp, 16
	pop	rbp
	ret
	.cfi_endproc
                                        ## -- End function
	.p2align	4, 0x90                         ## -- Begin function _ZNSt3__19allocatorINS_6vectorIcNS0_IcEEEEE10deallocateEPS3_m
__ZNSt3__19allocatorINS_6vectorIcNS0_IcEEEEE10deallocateEPS3_m: ## @_ZNSt3__19allocatorINS_6vectorIcNS0_IcEEEEE10deallocateEPS3_m
Lfunc_begin17:
	.cfi_startproc
	.cfi_personality 155, ___gxx_personality_v0
	.cfi_lsda 16, Lexception17
## %bb.0:
	push	rbp
	.cfi_def_cfa_offset 16
	.cfi_offset rbp, -16
	mov	rbp, rsp
	.cfi_def_cfa_register rbp
	sub	rsp, 32
	mov	qword ptr [rbp - 8], rdi
	mov	qword ptr [rbp - 16], rsi
	mov	qword ptr [rbp - 24], rdx
	mov	rdi, qword ptr [rbp - 16]
	mov	rax, qword ptr [rbp - 24]
	shl	rax, 3
	lea	rsi, [rax + 2*rax]
Ltmp110:
	mov	edx, 8
	call	__ZNSt3__1L19__libcpp_deallocateEPvmm
Ltmp111:
	jmp	LBB141_1
LBB141_1:
	add	rsp, 32
	pop	rbp
	ret
LBB141_2:
Ltmp112:
	mov	rdi, rax
	mov	qword ptr [rbp - 32], rdx       ## 8-byte Spill
	call	___clang_call_terminate
Lfunc_end17:
	.cfi_endproc
	.section	__TEXT,__gcc_except_tab
	.p2align	2
GCC_except_table141:
Lexception17:
	.byte	255                             ## @LPStart Encoding = omit
	.byte	155                             ## @TType Encoding = indirect pcrel sdata4
	.uleb128 Lttbase8-Lttbaseref8
Lttbaseref8:
	.byte	1                               ## Call site Encoding = uleb128
	.uleb128 Lcst_end17-Lcst_begin17
Lcst_begin17:
	.uleb128 Ltmp110-Lfunc_begin17          ## >> Call Site 1 <<
	.uleb128 Ltmp111-Ltmp110                ##   Call between Ltmp110 and Ltmp111
	.uleb128 Ltmp112-Lfunc_begin17          ##     jumps to Ltmp112
	.byte	1                               ##   On action: 1
Lcst_end17:
	.byte	1                               ## >> Action Record 1 <<
                                        ##   Catch TypeInfo 1
	.byte	0                               ##   No further actions
	.p2align	2
                                        ## >> Catch TypeInfos <<
	.long	0                               ## TypeInfo 1
Lttbase8:
	.p2align	2
                                        ## -- End function
	.section	__TEXT,__text,regular,pure_instructions
	.p2align	4, 0x90                         ## -- Begin function _ZNSt3__16vectorIcNS_9allocatorIcEEED2Ev
__ZNSt3__16vectorIcNS_9allocatorIcEEED2Ev: ## @_ZNSt3__16vectorIcNS_9allocatorIcEEED2Ev
	.cfi_startproc
## %bb.0:
	push	rbp
	.cfi_def_cfa_offset 16
	.cfi_offset rbp, -16
	mov	rbp, rsp
	.cfi_def_cfa_register rbp
	sub	rsp, 16
	mov	qword ptr [rbp - 8], rdi
	mov	rax, qword ptr [rbp - 8]
	mov	rdi, rax
	mov	qword ptr [rbp - 16], rax       ## 8-byte Spill
	call	__ZNKSt3__16vectorIcNS_9allocatorIcEEE17__annotate_deleteEv
	mov	rax, qword ptr [rbp - 16]       ## 8-byte Reload
	mov	rdi, rax
	call	__ZNSt3__113__vector_baseIcNS_9allocatorIcEEED2Ev
	add	rsp, 16
	pop	rbp
	ret
	.cfi_endproc
                                        ## -- End function
	.p2align	4, 0x90                         ## -- Begin function _ZNKSt3__16vectorIcNS_9allocatorIcEEE17__annotate_deleteEv
__ZNKSt3__16vectorIcNS_9allocatorIcEEE17__annotate_deleteEv: ## @_ZNKSt3__16vectorIcNS_9allocatorIcEEE17__annotate_deleteEv
	.cfi_startproc
## %bb.0:
	push	rbp
	.cfi_def_cfa_offset 16
	.cfi_offset rbp, -16
	mov	rbp, rsp
	.cfi_def_cfa_register rbp
	sub	rsp, 80
	mov	qword ptr [rbp - 8], rdi
	mov	rax, qword ptr [rbp - 8]
	mov	rdi, rax
	mov	qword ptr [rbp - 16], rax       ## 8-byte Spill
	call	__ZNKSt3__16vectorIcNS_9allocatorIcEEE4dataEv
	mov	rdi, qword ptr [rbp - 16]       ## 8-byte Reload
	mov	qword ptr [rbp - 24], rax       ## 8-byte Spill
	call	__ZNKSt3__16vectorIcNS_9allocatorIcEEE4dataEv
	mov	rdi, qword ptr [rbp - 16]       ## 8-byte Reload
	mov	qword ptr [rbp - 32], rax       ## 8-byte Spill
	call	__ZNKSt3__16vectorIcNS_9allocatorIcEEE8capacityEv
	mov	rcx, qword ptr [rbp - 32]       ## 8-byte Reload
	add	rcx, rax
	mov	rdi, qword ptr [rbp - 16]       ## 8-byte Reload
	mov	qword ptr [rbp - 40], rcx       ## 8-byte Spill
	call	__ZNKSt3__16vectorIcNS_9allocatorIcEEE4dataEv
	mov	rdi, qword ptr [rbp - 16]       ## 8-byte Reload
	mov	qword ptr [rbp - 48], rax       ## 8-byte Spill
	call	__ZNKSt3__16vectorIcNS_9allocatorIcEEE4sizeEv
	mov	rcx, qword ptr [rbp - 48]       ## 8-byte Reload
	add	rcx, rax
	mov	rdi, qword ptr [rbp - 16]       ## 8-byte Reload
	mov	qword ptr [rbp - 56], rcx       ## 8-byte Spill
	call	__ZNKSt3__16vectorIcNS_9allocatorIcEEE4dataEv
	mov	rdi, qword ptr [rbp - 16]       ## 8-byte Reload
	mov	qword ptr [rbp - 64], rax       ## 8-byte Spill
	call	__ZNKSt3__16vectorIcNS_9allocatorIcEEE8capacityEv
	mov	rcx, qword ptr [rbp - 64]       ## 8-byte Reload
	add	rcx, rax
	mov	rdi, qword ptr [rbp - 16]       ## 8-byte Reload
	mov	rsi, qword ptr [rbp - 24]       ## 8-byte Reload
	mov	rdx, qword ptr [rbp - 40]       ## 8-byte Reload
	mov	rax, qword ptr [rbp - 56]       ## 8-byte Reload
	mov	qword ptr [rbp - 72], rcx       ## 8-byte Spill
	mov	rcx, rax
	mov	r8, qword ptr [rbp - 72]        ## 8-byte Reload
	call	__ZNKSt3__16vectorIcNS_9allocatorIcEEE31__annotate_contiguous_containerEPKvS5_S5_S5_
	add	rsp, 80
	pop	rbp
	ret
	.cfi_endproc
                                        ## -- End function
	.globl	__ZNSt3__1rsIcNS_11char_traitsIcEEEERNS_13basic_istreamIT_T0_EES7_RS4_ ## -- Begin function _ZNSt3__1rsIcNS_11char_traitsIcEEEERNS_13basic_istreamIT_T0_EES7_RS4_
	.weak_definition	__ZNSt3__1rsIcNS_11char_traitsIcEEEERNS_13basic_istreamIT_T0_EES7_RS4_
	.p2align	4, 0x90
__ZNSt3__1rsIcNS_11char_traitsIcEEEERNS_13basic_istreamIT_T0_EES7_RS4_: ## @_ZNSt3__1rsIcNS_11char_traitsIcEEEERNS_13basic_istreamIT_T0_EES7_RS4_
Lfunc_begin18:
	.cfi_startproc
	.cfi_personality 155, ___gxx_personality_v0
	.cfi_lsda 16, Lexception18
## %bb.0:
	push	rbp
	.cfi_def_cfa_offset 16
	.cfi_offset rbp, -16
	mov	rbp, rsp
	.cfi_def_cfa_register rbp
	sub	rsp, 96
	xor	edx, edx
	mov	qword ptr [rbp - 8], rdi
	mov	qword ptr [rbp - 16], rsi
	mov	dword ptr [rbp - 20], 0
	mov	rsi, qword ptr [rbp - 8]
	lea	rdi, [rbp - 24]
	call	__ZNSt3__113basic_istreamIcNS_11char_traitsIcEEE6sentryC1ERS3_b
	lea	rdi, [rbp - 24]
	call	__ZNKSt3__113basic_istreamIcNS_11char_traitsIcEEE6sentrycvbEv
	test	al, 1
	jne	LBB144_1
	jmp	LBB144_16
LBB144_1:
	mov	rax, qword ptr [rbp - 8]
	mov	rcx, qword ptr [rax]
	mov	rcx, qword ptr [rcx - 24]
	add	rax, rcx
Ltmp113:
	mov	rdi, rax
	call	__ZNKSt3__19basic_iosIcNS_11char_traitsIcEEE5rdbufEv
Ltmp114:
	mov	qword ptr [rbp - 56], rax       ## 8-byte Spill
	jmp	LBB144_2
LBB144_2:
Ltmp115:
	mov	rdi, qword ptr [rbp - 56]       ## 8-byte Reload
	call	__ZNSt3__115basic_streambufIcNS_11char_traitsIcEEE6sbumpcEv
Ltmp116:
	mov	dword ptr [rbp - 60], eax       ## 4-byte Spill
	jmp	LBB144_3
LBB144_3:
	mov	eax, dword ptr [rbp - 60]       ## 4-byte Reload
	mov	dword ptr [rbp - 28], eax
	mov	edi, dword ptr [rbp - 28]
	mov	dword ptr [rbp - 64], edi       ## 4-byte Spill
	call	__ZNSt3__111char_traitsIcE3eofEv
	mov	edi, dword ptr [rbp - 64]       ## 4-byte Reload
	mov	esi, eax
	call	__ZNSt3__111char_traitsIcE11eq_int_typeEii
	test	al, 1
	jne	LBB144_4
	jmp	LBB144_10
LBB144_4:
	mov	eax, dword ptr [rbp - 20]
	or	eax, 6
	mov	dword ptr [rbp - 20], eax
	jmp	LBB144_11
LBB144_5:
Ltmp117:
                                        ## kill: def $edx killed $edx killed $rdx
	mov	qword ptr [rbp - 40], rax
	mov	dword ptr [rbp - 44], edx
## %bb.6:
	mov	rdi, qword ptr [rbp - 40]
	call	___cxa_begin_catch
	mov	cl, byte ptr [rbp - 20]
	or	cl, 1
	mov	byte ptr [rbp - 20], cl
	mov	rdx, qword ptr [rbp - 8]
	mov	rsi, qword ptr [rdx]
	mov	rsi, qword ptr [rsi - 24]
	add	rdx, rsi
	mov	esi, dword ptr [rbp - 20]
Ltmp118:
	mov	rdi, rdx
	mov	qword ptr [rbp - 72], rax       ## 8-byte Spill
	call	__ZNSt3__18ios_base18__setstate_nothrowEj
Ltmp119:
	jmp	LBB144_7
LBB144_7:
	mov	rax, qword ptr [rbp - 8]
	mov	rcx, qword ptr [rax]
	mov	rcx, qword ptr [rcx - 24]
	add	rax, rcx
Ltmp120:
	mov	rdi, rax
	call	__ZNKSt3__19basic_iosIcNS_11char_traitsIcEEE10exceptionsEv
Ltmp121:
	mov	dword ptr [rbp - 76], eax       ## 4-byte Spill
	jmp	LBB144_8
LBB144_8:
	mov	eax, dword ptr [rbp - 76]       ## 4-byte Reload
	and	eax, 1
	cmp	eax, 0
	je	LBB144_13
## %bb.9:
Ltmp122:
	call	___cxa_rethrow
Ltmp123:
	jmp	LBB144_19
LBB144_10:
	mov	edi, dword ptr [rbp - 28]
	call	__ZNSt3__111char_traitsIcE12to_char_typeEi
	mov	rcx, qword ptr [rbp - 16]
	mov	byte ptr [rcx], al
LBB144_11:
	jmp	LBB144_14
LBB144_12:
Ltmp124:
                                        ## kill: def $edx killed $edx killed $rdx
	mov	qword ptr [rbp - 40], rax
	mov	dword ptr [rbp - 44], edx
Ltmp125:
	call	___cxa_end_catch
Ltmp126:
	jmp	LBB144_15
LBB144_13:
	call	___cxa_end_catch
LBB144_14:
	mov	rax, qword ptr [rbp - 8]
	mov	rcx, qword ptr [rax]
	mov	rcx, qword ptr [rcx - 24]
	add	rax, rcx
	mov	esi, dword ptr [rbp - 20]
	mov	rdi, rax
	call	__ZNSt3__19basic_iosIcNS_11char_traitsIcEEE8setstateEj
	jmp	LBB144_16
LBB144_15:
	jmp	LBB144_17
LBB144_16:
	mov	rax, qword ptr [rbp - 8]
	add	rsp, 96
	pop	rbp
	ret
LBB144_17:
	mov	rdi, qword ptr [rbp - 40]
	call	__Unwind_Resume
	ud2
LBB144_18:
Ltmp127:
	mov	rdi, rax
	mov	qword ptr [rbp - 88], rdx       ## 8-byte Spill
	call	___clang_call_terminate
LBB144_19:
	ud2
Lfunc_end18:
	.cfi_endproc
	.section	__TEXT,__gcc_except_tab
	.p2align	2
GCC_except_table144:
Lexception18:
	.byte	255                             ## @LPStart Encoding = omit
	.byte	155                             ## @TType Encoding = indirect pcrel sdata4
	.uleb128 Lttbase9-Lttbaseref9
Lttbaseref9:
	.byte	1                               ## Call site Encoding = uleb128
	.uleb128 Lcst_end18-Lcst_begin18
Lcst_begin18:
	.uleb128 Lfunc_begin18-Lfunc_begin18    ## >> Call Site 1 <<
	.uleb128 Ltmp113-Lfunc_begin18          ##   Call between Lfunc_begin18 and Ltmp113
	.byte	0                               ##     has no landing pad
	.byte	0                               ##   On action: cleanup
	.uleb128 Ltmp113-Lfunc_begin18          ## >> Call Site 2 <<
	.uleb128 Ltmp116-Ltmp113                ##   Call between Ltmp113 and Ltmp116
	.uleb128 Ltmp117-Lfunc_begin18          ##     jumps to Ltmp117
	.byte	1                               ##   On action: 1
	.uleb128 Ltmp116-Lfunc_begin18          ## >> Call Site 3 <<
	.uleb128 Ltmp118-Ltmp116                ##   Call between Ltmp116 and Ltmp118
	.byte	0                               ##     has no landing pad
	.byte	0                               ##   On action: cleanup
	.uleb128 Ltmp118-Lfunc_begin18          ## >> Call Site 4 <<
	.uleb128 Ltmp123-Ltmp118                ##   Call between Ltmp118 and Ltmp123
	.uleb128 Ltmp124-Lfunc_begin18          ##     jumps to Ltmp124
	.byte	0                               ##   On action: cleanup
	.uleb128 Ltmp125-Lfunc_begin18          ## >> Call Site 5 <<
	.uleb128 Ltmp126-Ltmp125                ##   Call between Ltmp125 and Ltmp126
	.uleb128 Ltmp127-Lfunc_begin18          ##     jumps to Ltmp127
	.byte	1                               ##   On action: 1
	.uleb128 Ltmp126-Lfunc_begin18          ## >> Call Site 6 <<
	.uleb128 Lfunc_end18-Ltmp126            ##   Call between Ltmp126 and Lfunc_end18
	.byte	0                               ##     has no landing pad
	.byte	0                               ##   On action: cleanup
Lcst_end18:
	.byte	1                               ## >> Action Record 1 <<
                                        ##   Catch TypeInfo 1
	.byte	0                               ##   No further actions
	.p2align	2
                                        ## >> Catch TypeInfos <<
	.long	0                               ## TypeInfo 1
Lttbase9:
	.p2align	2
                                        ## -- End function
	.section	__TEXT,__text,regular,pure_instructions
	.p2align	4, 0x90                         ## -- Begin function _ZNKSt3__113basic_istreamIcNS_11char_traitsIcEEE6sentrycvbEv
__ZNKSt3__113basic_istreamIcNS_11char_traitsIcEEE6sentrycvbEv: ## @_ZNKSt3__113basic_istreamIcNS_11char_traitsIcEEE6sentrycvbEv
	.cfi_startproc
## %bb.0:
	push	rbp
	.cfi_def_cfa_offset 16
	.cfi_offset rbp, -16
	mov	rbp, rsp
	.cfi_def_cfa_register rbp
	mov	qword ptr [rbp - 8], rdi
	mov	rax, qword ptr [rbp - 8]
	mov	cl, byte ptr [rax]
	and	cl, 1
	movzx	eax, cl
	pop	rbp
	ret
	.cfi_endproc
                                        ## -- End function
	.p2align	4, 0x90                         ## -- Begin function _ZNKSt3__19basic_iosIcNS_11char_traitsIcEEE5rdbufEv
__ZNKSt3__19basic_iosIcNS_11char_traitsIcEEE5rdbufEv: ## @_ZNKSt3__19basic_iosIcNS_11char_traitsIcEEE5rdbufEv
	.cfi_startproc
## %bb.0:
	push	rbp
	.cfi_def_cfa_offset 16
	.cfi_offset rbp, -16
	mov	rbp, rsp
	.cfi_def_cfa_register rbp
	sub	rsp, 16
	mov	qword ptr [rbp - 8], rdi
	mov	rax, qword ptr [rbp - 8]
	mov	rdi, rax
	call	__ZNKSt3__18ios_base5rdbufEv
	add	rsp, 16
	pop	rbp
	ret
	.cfi_endproc
                                        ## -- End function
	.p2align	4, 0x90                         ## -- Begin function _ZNSt3__115basic_streambufIcNS_11char_traitsIcEEE6sbumpcEv
__ZNSt3__115basic_streambufIcNS_11char_traitsIcEEE6sbumpcEv: ## @_ZNSt3__115basic_streambufIcNS_11char_traitsIcEEE6sbumpcEv
	.cfi_startproc
## %bb.0:
	push	rbp
	.cfi_def_cfa_offset 16
	.cfi_offset rbp, -16
	mov	rbp, rsp
	.cfi_def_cfa_register rbp
	sub	rsp, 32
	mov	qword ptr [rbp - 16], rdi
	mov	rax, qword ptr [rbp - 16]
	mov	rcx, qword ptr [rax + 24]
	cmp	rcx, qword ptr [rax + 32]
	mov	qword ptr [rbp - 24], rax       ## 8-byte Spill
	jne	LBB147_2
## %bb.1:
	mov	rax, qword ptr [rbp - 24]       ## 8-byte Reload
	mov	rcx, qword ptr [rax]
	mov	rdi, rax
	call	qword ptr [rcx + 80]
	mov	dword ptr [rbp - 4], eax
	jmp	LBB147_3
LBB147_2:
	mov	rax, qword ptr [rbp - 24]       ## 8-byte Reload
	mov	rcx, qword ptr [rax + 24]
	mov	rdx, rcx
	add	rdx, 1
	mov	qword ptr [rax + 24], rdx
	movsx	edi, byte ptr [rcx]
	call	__ZNSt3__111char_traitsIcE11to_int_typeEc
	mov	dword ptr [rbp - 4], eax
LBB147_3:
	mov	eax, dword ptr [rbp - 4]
	add	rsp, 32
	pop	rbp
	ret
	.cfi_endproc
                                        ## -- End function
	.globl	__ZNSt3__111char_traitsIcE11eq_int_typeEii ## -- Begin function _ZNSt3__111char_traitsIcE11eq_int_typeEii
	.weak_definition	__ZNSt3__111char_traitsIcE11eq_int_typeEii
	.p2align	4, 0x90
__ZNSt3__111char_traitsIcE11eq_int_typeEii: ## @_ZNSt3__111char_traitsIcE11eq_int_typeEii
	.cfi_startproc
## %bb.0:
	push	rbp
	.cfi_def_cfa_offset 16
	.cfi_offset rbp, -16
	mov	rbp, rsp
	.cfi_def_cfa_register rbp
	mov	dword ptr [rbp - 4], edi
	mov	dword ptr [rbp - 8], esi
	mov	eax, dword ptr [rbp - 4]
	cmp	eax, dword ptr [rbp - 8]
	sete	cl
	and	cl, 1
	movzx	eax, cl
	pop	rbp
	ret
	.cfi_endproc
                                        ## -- End function
	.globl	__ZNSt3__111char_traitsIcE3eofEv ## -- Begin function _ZNSt3__111char_traitsIcE3eofEv
	.weak_definition	__ZNSt3__111char_traitsIcE3eofEv
	.p2align	4, 0x90
__ZNSt3__111char_traitsIcE3eofEv:       ## @_ZNSt3__111char_traitsIcE3eofEv
	.cfi_startproc
## %bb.0:
	push	rbp
	.cfi_def_cfa_offset 16
	.cfi_offset rbp, -16
	mov	rbp, rsp
	.cfi_def_cfa_register rbp
	mov	eax, 4294967295
	pop	rbp
	ret
	.cfi_endproc
                                        ## -- End function
	.globl	__ZNSt3__111char_traitsIcE12to_char_typeEi ## -- Begin function _ZNSt3__111char_traitsIcE12to_char_typeEi
	.weak_definition	__ZNSt3__111char_traitsIcE12to_char_typeEi
	.p2align	4, 0x90
__ZNSt3__111char_traitsIcE12to_char_typeEi: ## @_ZNSt3__111char_traitsIcE12to_char_typeEi
	.cfi_startproc
## %bb.0:
	push	rbp
	.cfi_def_cfa_offset 16
	.cfi_offset rbp, -16
	mov	rbp, rsp
	.cfi_def_cfa_register rbp
	mov	dword ptr [rbp - 4], edi
	mov	eax, dword ptr [rbp - 4]
                                        ## kill: def $al killed $al killed $eax
	movsx	eax, al
	pop	rbp
	ret
	.cfi_endproc
                                        ## -- End function
	.p2align	4, 0x90                         ## -- Begin function _ZNSt3__18ios_base18__setstate_nothrowEj
__ZNSt3__18ios_base18__setstate_nothrowEj: ## @_ZNSt3__18ios_base18__setstate_nothrowEj
	.cfi_startproc
## %bb.0:
	push	rbp
	.cfi_def_cfa_offset 16
	.cfi_offset rbp, -16
	mov	rbp, rsp
	.cfi_def_cfa_register rbp
	mov	qword ptr [rbp - 8], rdi
	mov	dword ptr [rbp - 12], esi
	mov	rax, qword ptr [rbp - 8]
	cmp	qword ptr [rax + 40], 0
	mov	qword ptr [rbp - 24], rax       ## 8-byte Spill
	je	LBB151_2
## %bb.1:
	mov	eax, dword ptr [rbp - 12]
	mov	rcx, qword ptr [rbp - 24]       ## 8-byte Reload
	or	eax, dword ptr [rcx + 32]
	mov	dword ptr [rcx + 32], eax
	jmp	LBB151_3
LBB151_2:
	mov	eax, dword ptr [rbp - 12]
	or	eax, 1
	mov	rcx, qword ptr [rbp - 24]       ## 8-byte Reload
	or	eax, dword ptr [rcx + 32]
	mov	dword ptr [rcx + 32], eax
LBB151_3:
	pop	rbp
	ret
	.cfi_endproc
                                        ## -- End function
	.p2align	4, 0x90                         ## -- Begin function _ZNKSt3__19basic_iosIcNS_11char_traitsIcEEE10exceptionsEv
__ZNKSt3__19basic_iosIcNS_11char_traitsIcEEE10exceptionsEv: ## @_ZNKSt3__19basic_iosIcNS_11char_traitsIcEEE10exceptionsEv
	.cfi_startproc
## %bb.0:
	push	rbp
	.cfi_def_cfa_offset 16
	.cfi_offset rbp, -16
	mov	rbp, rsp
	.cfi_def_cfa_register rbp
	sub	rsp, 16
	mov	qword ptr [rbp - 8], rdi
	mov	rax, qword ptr [rbp - 8]
	mov	rdi, rax
	call	__ZNKSt3__18ios_base10exceptionsEv
	add	rsp, 16
	pop	rbp
	ret
	.cfi_endproc
                                        ## -- End function
	.p2align	4, 0x90                         ## -- Begin function _ZNSt3__19basic_iosIcNS_11char_traitsIcEEE8setstateEj
__ZNSt3__19basic_iosIcNS_11char_traitsIcEEE8setstateEj: ## @_ZNSt3__19basic_iosIcNS_11char_traitsIcEEE8setstateEj
	.cfi_startproc
## %bb.0:
	push	rbp
	.cfi_def_cfa_offset 16
	.cfi_offset rbp, -16
	mov	rbp, rsp
	.cfi_def_cfa_register rbp
	sub	rsp, 16
	mov	qword ptr [rbp - 8], rdi
	mov	dword ptr [rbp - 12], esi
	mov	rax, qword ptr [rbp - 8]
	mov	esi, dword ptr [rbp - 12]
	mov	rdi, rax
	call	__ZNSt3__18ios_base8setstateEj
	add	rsp, 16
	pop	rbp
	ret
	.cfi_endproc
                                        ## -- End function
	.p2align	4, 0x90                         ## -- Begin function _ZNKSt3__18ios_base5rdbufEv
__ZNKSt3__18ios_base5rdbufEv:           ## @_ZNKSt3__18ios_base5rdbufEv
	.cfi_startproc
## %bb.0:
	push	rbp
	.cfi_def_cfa_offset 16
	.cfi_offset rbp, -16
	mov	rbp, rsp
	.cfi_def_cfa_register rbp
	mov	qword ptr [rbp - 8], rdi
	mov	rax, qword ptr [rbp - 8]
	mov	rax, qword ptr [rax + 40]
	pop	rbp
	ret
	.cfi_endproc
                                        ## -- End function
	.globl	__ZNSt3__111char_traitsIcE11to_int_typeEc ## -- Begin function _ZNSt3__111char_traitsIcE11to_int_typeEc
	.weak_definition	__ZNSt3__111char_traitsIcE11to_int_typeEc
	.p2align	4, 0x90
__ZNSt3__111char_traitsIcE11to_int_typeEc: ## @_ZNSt3__111char_traitsIcE11to_int_typeEc
	.cfi_startproc
## %bb.0:
	push	rbp
	.cfi_def_cfa_offset 16
	.cfi_offset rbp, -16
	mov	rbp, rsp
	.cfi_def_cfa_register rbp
                                        ## kill: def $dil killed $dil killed $edi
	mov	byte ptr [rbp - 1], dil
	movzx	eax, byte ptr [rbp - 1]
	pop	rbp
	ret
	.cfi_endproc
                                        ## -- End function
	.p2align	4, 0x90                         ## -- Begin function _ZNKSt3__18ios_base10exceptionsEv
__ZNKSt3__18ios_base10exceptionsEv:     ## @_ZNKSt3__18ios_base10exceptionsEv
	.cfi_startproc
## %bb.0:
	push	rbp
	.cfi_def_cfa_offset 16
	.cfi_offset rbp, -16
	mov	rbp, rsp
	.cfi_def_cfa_register rbp
	mov	qword ptr [rbp - 8], rdi
	mov	rax, qword ptr [rbp - 8]
	mov	eax, dword ptr [rax + 36]
	pop	rbp
	ret
	.cfi_endproc
                                        ## -- End function
	.p2align	4, 0x90                         ## -- Begin function _ZNSt3__18ios_base8setstateEj
__ZNSt3__18ios_base8setstateEj:         ## @_ZNSt3__18ios_base8setstateEj
	.cfi_startproc
## %bb.0:
	push	rbp
	.cfi_def_cfa_offset 16
	.cfi_offset rbp, -16
	mov	rbp, rsp
	.cfi_def_cfa_register rbp
	sub	rsp, 16
	mov	qword ptr [rbp - 8], rdi
	mov	dword ptr [rbp - 12], esi
	mov	rax, qword ptr [rbp - 8]
	mov	ecx, dword ptr [rax + 32]
	or	ecx, dword ptr [rbp - 12]
	mov	rdi, rax
	mov	esi, ecx
	call	__ZNSt3__18ios_base5clearEj
	add	rsp, 16
	pop	rbp
	ret
	.cfi_endproc
                                        ## -- End function
	.globl	__ZN5indexC2Eii                 ## -- Begin function _ZN5indexC2Eii
	.weak_def_can_be_hidden	__ZN5indexC2Eii
	.p2align	4, 0x90
__ZN5indexC2Eii:                        ## @_ZN5indexC2Eii
	.cfi_startproc
## %bb.0:
	push	rbp
	.cfi_def_cfa_offset 16
	.cfi_offset rbp, -16
	mov	rbp, rsp
	.cfi_def_cfa_register rbp
	mov	qword ptr [rbp - 8], rdi
	mov	dword ptr [rbp - 12], esi
	mov	dword ptr [rbp - 16], edx
	mov	rax, qword ptr [rbp - 8]
	mov	ecx, dword ptr [rbp - 12]
	mov	dword ptr [rax], ecx
	mov	ecx, dword ptr [rbp - 16]
	mov	dword ptr [rax + 4], ecx
	pop	rbp
	ret
	.cfi_endproc
                                        ## -- End function
	.p2align	4, 0x90                         ## -- Begin function _ZNSt3__15dequeINS_4pairIiiEENS_9allocatorIS2_EEEC1Ev
__ZNSt3__15dequeINS_4pairIiiEENS_9allocatorIS2_EEEC1Ev: ## @_ZNSt3__15dequeINS_4pairIiiEENS_9allocatorIS2_EEEC1Ev
	.cfi_startproc
## %bb.0:
	push	rbp
	.cfi_def_cfa_offset 16
	.cfi_offset rbp, -16
	mov	rbp, rsp
	.cfi_def_cfa_register rbp
	sub	rsp, 16
	mov	qword ptr [rbp - 8], rdi
	mov	rdi, qword ptr [rbp - 8]
	call	__ZNSt3__15dequeINS_4pairIiiEENS_9allocatorIS2_EEEC2Ev
	add	rsp, 16
	pop	rbp
	ret
	.cfi_endproc
                                        ## -- End function
	.p2align	4, 0x90                         ## -- Begin function _ZNSt3__13setINS_4pairIiiEENS_4lessIS2_EENS_9allocatorIS2_EEEC1Ev
__ZNSt3__13setINS_4pairIiiEENS_4lessIS2_EENS_9allocatorIS2_EEEC1Ev: ## @_ZNSt3__13setINS_4pairIiiEENS_4lessIS2_EENS_9allocatorIS2_EEEC1Ev
	.cfi_startproc
## %bb.0:
	push	rbp
	.cfi_def_cfa_offset 16
	.cfi_offset rbp, -16
	mov	rbp, rsp
	.cfi_def_cfa_register rbp
	sub	rsp, 16
	mov	qword ptr [rbp - 8], rdi
	mov	rdi, qword ptr [rbp - 8]
	call	__ZNSt3__13setINS_4pairIiiEENS_4lessIS2_EENS_9allocatorIS2_EEEC2Ev
	add	rsp, 16
	pop	rbp
	ret
	.cfi_endproc
                                        ## -- End function
	.globl	__ZNSt3__15dequeINS_4pairIiiEENS_9allocatorIS2_EEE9push_backEOS2_ ## -- Begin function _ZNSt3__15dequeINS_4pairIiiEENS_9allocatorIS2_EEE9push_backEOS2_
	.weak_definition	__ZNSt3__15dequeINS_4pairIiiEENS_9allocatorIS2_EEE9push_backEOS2_
	.p2align	4, 0x90
__ZNSt3__15dequeINS_4pairIiiEENS_9allocatorIS2_EEE9push_backEOS2_: ## @_ZNSt3__15dequeINS_4pairIiiEENS_9allocatorIS2_EEE9push_backEOS2_
	.cfi_startproc
## %bb.0:
	push	rbp
	.cfi_def_cfa_offset 16
	.cfi_offset rbp, -16
	mov	rbp, rsp
	.cfi_def_cfa_register rbp
	sub	rsp, 64
	mov	qword ptr [rbp - 8], rdi
	mov	qword ptr [rbp - 16], rsi
	mov	rax, qword ptr [rbp - 8]
	mov	rcx, rax
	mov	rdi, rcx
	mov	qword ptr [rbp - 48], rax       ## 8-byte Spill
	call	__ZNSt3__112__deque_baseINS_4pairIiiEENS_9allocatorIS2_EEE7__allocEv
	mov	qword ptr [rbp - 24], rax
	mov	rdi, qword ptr [rbp - 48]       ## 8-byte Reload
	call	__ZNKSt3__15dequeINS_4pairIiiEENS_9allocatorIS2_EEE12__back_spareEv
	cmp	rax, 0
	jne	LBB161_2
## %bb.1:
	mov	rdi, qword ptr [rbp - 48]       ## 8-byte Reload
	call	__ZNSt3__15dequeINS_4pairIiiEENS_9allocatorIS2_EEE19__add_back_capacityEv
LBB161_2:
	mov	rdi, qword ptr [rbp - 24]
	mov	rax, qword ptr [rbp - 48]       ## 8-byte Reload
	mov	qword ptr [rbp - 56], rdi       ## 8-byte Spill
	mov	rdi, rax
	call	__ZNSt3__112__deque_baseINS_4pairIiiEENS_9allocatorIS2_EEE3endEv
	mov	qword ptr [rbp - 40], rax
	mov	qword ptr [rbp - 32], rdx
	lea	rdi, [rbp - 40]
	call	__ZNKSt3__116__deque_iteratorINS_4pairIiiEEPS2_RS2_PS3_lLl512EEdeEv
	mov	rdi, rax
	call	__ZNSt3__1L9addressofINS_4pairIiiEEEEPT_RS3_
	mov	rdi, qword ptr [rbp - 16]
	mov	qword ptr [rbp - 64], rax       ## 8-byte Spill
	call	__ZNSt3__1L4moveIRNS_4pairIiiEEEEONS_16remove_referenceIT_E4typeEOS5_
	mov	rdi, qword ptr [rbp - 56]       ## 8-byte Reload
	mov	rsi, qword ptr [rbp - 64]       ## 8-byte Reload
	mov	rdx, rax
	call	__ZNSt3__116allocator_traitsINS_9allocatorINS_4pairIiiEEEEE9constructIS3_JS3_EEEvRS4_PT_DpOT0_
	mov	rax, qword ptr [rbp - 48]       ## 8-byte Reload
	mov	rdi, rax
	call	__ZNSt3__112__deque_baseINS_4pairIiiEENS_9allocatorIS2_EEE4sizeEv
	mov	rcx, qword ptr [rax]
	add	rcx, 1
	mov	qword ptr [rax], rcx
	add	rsp, 64
	pop	rbp
	ret
	.cfi_endproc
                                        ## -- End function
	.globl	__ZN5index8get_pairEv           ## -- Begin function _ZN5index8get_pairEv
	.weak_definition	__ZN5index8get_pairEv
	.p2align	4, 0x90
__ZN5index8get_pairEv:                  ## @_ZN5index8get_pairEv
	.cfi_startproc
## %bb.0:
	push	rbp
	.cfi_def_cfa_offset 16
	.cfi_offset rbp, -16
	mov	rbp, rsp
	.cfi_def_cfa_register rbp
	sub	rsp, 16
	mov	qword ptr [rbp - 16], rdi
	mov	rax, qword ptr [rbp - 16]
	mov	rcx, rax
	add	rcx, 4
	mov	rdi, rax
	mov	rsi, rcx
	call	__ZNSt3__1L9make_pairIRiS1_EENS_4pairINS_18__unwrap_ref_decayIT_E4typeENS3_IT0_E4typeEEEOS4_OS7_
	mov	qword ptr [rbp - 8], rax
	mov	rax, qword ptr [rbp - 8]
	add	rsp, 16
	pop	rbp
	ret
	.cfi_endproc
                                        ## -- End function
	.p2align	4, 0x90                         ## -- Begin function _ZNKSt3__15dequeINS_4pairIiiEENS_9allocatorIS2_EEE5emptyEv
__ZNKSt3__15dequeINS_4pairIiiEENS_9allocatorIS2_EEE5emptyEv: ## @_ZNKSt3__15dequeINS_4pairIiiEENS_9allocatorIS2_EEE5emptyEv
	.cfi_startproc
## %bb.0:
	push	rbp
	.cfi_def_cfa_offset 16
	.cfi_offset rbp, -16
	mov	rbp, rsp
	.cfi_def_cfa_register rbp
	sub	rsp, 16
	mov	qword ptr [rbp - 8], rdi
	mov	rax, qword ptr [rbp - 8]
	mov	rdi, rax
	call	__ZNKSt3__112__deque_baseINS_4pairIiiEENS_9allocatorIS2_EEE4sizeEv
	cmp	qword ptr [rax], 0
	sete	cl
	and	cl, 1
	movzx	eax, cl
	add	rsp, 16
	pop	rbp
	ret
	.cfi_endproc
                                        ## -- End function
	.p2align	4, 0x90                         ## -- Begin function _ZNSt3__1eqERKNS_21__tree_const_iteratorINS_4pairIiiEEPNS_11__tree_nodeIS2_PvEElEES9_
__ZNSt3__1eqERKNS_21__tree_const_iteratorINS_4pairIiiEEPNS_11__tree_nodeIS2_PvEElEES9_: ## @_ZNSt3__1eqERKNS_21__tree_const_iteratorINS_4pairIiiEEPNS_11__tree_nodeIS2_PvEElEES9_
	.cfi_startproc
## %bb.0:
	push	rbp
	.cfi_def_cfa_offset 16
	.cfi_offset rbp, -16
	mov	rbp, rsp
	.cfi_def_cfa_register rbp
	mov	qword ptr [rbp - 8], rdi
	mov	qword ptr [rbp - 16], rsi
	mov	rax, qword ptr [rbp - 8]
	mov	rax, qword ptr [rax]
	mov	rcx, qword ptr [rbp - 16]
	cmp	rax, qword ptr [rcx]
	sete	dl
	and	dl, 1
	movzx	eax, dl
	pop	rbp
	ret
	.cfi_endproc
                                        ## -- End function
	.p2align	4, 0x90                         ## -- Begin function _ZNSt3__13setINS_4pairIiiEENS_4lessIS2_EENS_9allocatorIS2_EEE4findERKS2_
__ZNSt3__13setINS_4pairIiiEENS_4lessIS2_EENS_9allocatorIS2_EEE4findERKS2_: ## @_ZNSt3__13setINS_4pairIiiEENS_4lessIS2_EENS_9allocatorIS2_EEE4findERKS2_
	.cfi_startproc
## %bb.0:
	push	rbp
	.cfi_def_cfa_offset 16
	.cfi_offset rbp, -16
	mov	rbp, rsp
	.cfi_def_cfa_register rbp
	sub	rsp, 32
	mov	qword ptr [rbp - 16], rdi
	mov	qword ptr [rbp - 24], rsi
	mov	rdi, qword ptr [rbp - 16]
	mov	rsi, qword ptr [rbp - 24]
	call	__ZNSt3__16__treeINS_4pairIiiEENS_4lessIS2_EENS_9allocatorIS2_EEE4findIS2_EENS_15__tree_iteratorIS2_PNS_11__tree_nodeIS2_PvEElEERKT_
	mov	qword ptr [rbp - 32], rax
	mov	rsi, qword ptr [rbp - 32]
	lea	rdi, [rbp - 8]
	call	__ZNSt3__121__tree_const_iteratorINS_4pairIiiEEPNS_11__tree_nodeIS2_PvEElEC1ENS_15__tree_iteratorIS2_S6_lEE
	mov	rax, qword ptr [rbp - 8]
	add	rsp, 32
	pop	rbp
	ret
	.cfi_endproc
                                        ## -- End function
	.p2align	4, 0x90                         ## -- Begin function _ZNSt3__15dequeINS_4pairIiiEENS_9allocatorIS2_EEE5frontEv
__ZNSt3__15dequeINS_4pairIiiEENS_9allocatorIS2_EEE5frontEv: ## @_ZNSt3__15dequeINS_4pairIiiEENS_9allocatorIS2_EEE5frontEv
	.cfi_startproc
## %bb.0:
	push	rbp
	.cfi_def_cfa_offset 16
	.cfi_offset rbp, -16
	mov	rbp, rsp
	.cfi_def_cfa_register rbp
	sub	rsp, 16
	mov	qword ptr [rbp - 8], rdi
	mov	rax, qword ptr [rbp - 8]
	mov	rcx, rax
	mov	rdi, rcx
	mov	qword ptr [rbp - 16], rax       ## 8-byte Spill
	call	__ZNSt3__114__split_bufferIPNS_4pairIiiEENS_9allocatorIS3_EEE5beginEv
	mov	rcx, qword ptr [rbp - 16]       ## 8-byte Reload
	mov	rdx, qword ptr [rcx + 32]
	shr	rdx, 9
	mov	rax, qword ptr [rax + 8*rdx]
	mov	rdx, qword ptr [rcx + 32]
	and	rdx, 511
	shl	rdx, 3
	add	rax, rdx
	add	rsp, 16
	pop	rbp
	ret
	.cfi_endproc
                                        ## -- End function
	.p2align	4, 0x90                         ## -- Begin function _ZNSt3__13setINS_4pairIiiEENS_4lessIS2_EENS_9allocatorIS2_EEE3endEv
__ZNSt3__13setINS_4pairIiiEENS_4lessIS2_EENS_9allocatorIS2_EEE3endEv: ## @_ZNSt3__13setINS_4pairIiiEENS_4lessIS2_EENS_9allocatorIS2_EEE3endEv
	.cfi_startproc
## %bb.0:
	push	rbp
	.cfi_def_cfa_offset 16
	.cfi_offset rbp, -16
	mov	rbp, rsp
	.cfi_def_cfa_register rbp
	sub	rsp, 32
	mov	qword ptr [rbp - 16], rdi
	mov	rdi, qword ptr [rbp - 16]
	call	__ZNSt3__16__treeINS_4pairIiiEENS_4lessIS2_EENS_9allocatorIS2_EEE3endEv
	mov	qword ptr [rbp - 24], rax
	mov	rsi, qword ptr [rbp - 24]
	lea	rdi, [rbp - 8]
	call	__ZNSt3__121__tree_const_iteratorINS_4pairIiiEEPNS_11__tree_nodeIS2_PvEElEC1ENS_15__tree_iteratorIS2_S6_lEE
	mov	rax, qword ptr [rbp - 8]
	add	rsp, 32
	pop	rbp
	ret
	.cfi_endproc
                                        ## -- End function
	.globl	__ZN5graph4markE5index          ## -- Begin function _ZN5graph4markE5index
	.weak_definition	__ZN5graph4markE5index
	.p2align	4, 0x90
__ZN5graph4markE5index:                 ## @_ZN5graph4markE5index
	.cfi_startproc
## %bb.0:
	push	rbp
	.cfi_def_cfa_offset 16
	.cfi_offset rbp, -16
	mov	rbp, rsp
	.cfi_def_cfa_register rbp
	sub	rsp, 16
	mov	qword ptr [rbp - 8], rsi
	mov	qword ptr [rbp - 16], rdi
	mov	rax, qword ptr [rbp - 16]
	mov	rdi, qword ptr [rax + 8]
	movsxd	rsi, dword ptr [rbp - 8]
	call	__ZNSt3__16vectorINS0_IcNS_9allocatorIcEEEENS1_IS3_EEEixEm
	movsxd	rsi, dword ptr [rbp - 4]
	mov	rdi, rax
	call	__ZNSt3__16vectorIcNS_9allocatorIcEEEixEm
	mov	byte ptr [rax], 42
	add	rsp, 16
	pop	rbp
	ret
	.cfi_endproc
                                        ## -- End function
	.p2align	4, 0x90                         ## -- Begin function _ZNSt3__13setINS_4pairIiiEENS_4lessIS2_EENS_9allocatorIS2_EEE6insertEOS2_
__ZNSt3__13setINS_4pairIiiEENS_4lessIS2_EENS_9allocatorIS2_EEE6insertEOS2_: ## @_ZNSt3__13setINS_4pairIiiEENS_4lessIS2_EENS_9allocatorIS2_EEE6insertEOS2_
	.cfi_startproc
## %bb.0:
	push	rbp
	.cfi_def_cfa_offset 16
	.cfi_offset rbp, -16
	mov	rbp, rsp
	.cfi_def_cfa_register rbp
	sub	rsp, 64
	mov	qword ptr [rbp - 24], rdi
	mov	qword ptr [rbp - 32], rsi
	mov	rdi, qword ptr [rbp - 24]
	mov	rax, qword ptr [rbp - 32]
	mov	qword ptr [rbp - 56], rdi       ## 8-byte Spill
	mov	rdi, rax
	call	__ZNSt3__1L4moveIRNS_4pairIiiEEEEONS_16remove_referenceIT_E4typeEOS5_
	mov	rdi, qword ptr [rbp - 56]       ## 8-byte Reload
	mov	rsi, rax
	call	__ZNSt3__16__treeINS_4pairIiiEENS_4lessIS2_EENS_9allocatorIS2_EEE15__insert_uniqueEOS2_
	mov	qword ptr [rbp - 48], rax
	mov	byte ptr [rbp - 40], dl
	lea	rdi, [rbp - 16]
	lea	rsi, [rbp - 48]
	call	__ZNSt3__14pairINS_21__tree_const_iteratorINS0_IiiEEPNS_11__tree_nodeIS2_PvEElEEbEC1INS_15__tree_iteratorIS2_S6_lEEbLb0EEEONS0_IT_T0_EE
	mov	rax, qword ptr [rbp - 16]
	mov	dl, byte ptr [rbp - 8]
	add	rsp, 64
	pop	rbp
	ret
	.cfi_endproc
                                        ## -- End function
	.globl	__ZN5graph8validateENSt3__14pairIiiEE ## -- Begin function _ZN5graph8validateENSt3__14pairIiiEE
	.weak_definition	__ZN5graph8validateENSt3__14pairIiiEE
	.p2align	4, 0x90
__ZN5graph8validateENSt3__14pairIiiEE:  ## @_ZN5graph8validateENSt3__14pairIiiEE
	.cfi_startproc
## %bb.0:
	push	rbp
	.cfi_def_cfa_offset 16
	.cfi_offset rbp, -16
	mov	rbp, rsp
	.cfi_def_cfa_register rbp
	sub	rsp, 32
	mov	qword ptr [rbp - 16], rsi
	mov	qword ptr [rbp - 24], rdi
	mov	rax, qword ptr [rbp - 24]
	cmp	dword ptr [rbp - 16], 0
	mov	qword ptr [rbp - 32], rax       ## 8-byte Spill
	jl	LBB170_2
## %bb.1:
	cmp	dword ptr [rbp - 12], 0
	jge	LBB170_3
LBB170_2:
	mov	byte ptr [rbp - 1], 0
	jmp	LBB170_9
LBB170_3:
	mov	eax, dword ptr [rbp - 16]
	mov	rcx, qword ptr [rbp - 32]       ## 8-byte Reload
	cmp	eax, dword ptr [rcx]
	jge	LBB170_5
## %bb.4:
	mov	eax, dword ptr [rbp - 12]
	mov	rcx, qword ptr [rbp - 32]       ## 8-byte Reload
	cmp	eax, dword ptr [rcx + 4]
	jl	LBB170_6
LBB170_5:
	mov	byte ptr [rbp - 1], 0
	jmp	LBB170_9
LBB170_6:
	mov	rax, qword ptr [rbp - 32]       ## 8-byte Reload
	mov	rdi, qword ptr [rax + 8]
	movsxd	rsi, dword ptr [rbp - 16]
	call	__ZNSt3__16vectorINS0_IcNS_9allocatorIcEEEENS1_IS3_EEEixEm
	movsxd	rsi, dword ptr [rbp - 12]
	mov	rdi, rax
	call	__ZNSt3__16vectorIcNS_9allocatorIcEEEixEm
	movsx	ecx, byte ptr [rax]
	cmp	ecx, 46
	jne	LBB170_8
## %bb.7:
	mov	byte ptr [rbp - 1], 1
	jmp	LBB170_9
LBB170_8:
	mov	byte ptr [rbp - 1], 0
LBB170_9:
	mov	al, byte ptr [rbp - 1]
	and	al, 1
	movzx	eax, al
	add	rsp, 32
	pop	rbp
	ret
	.cfi_endproc
                                        ## -- End function
	.globl	__ZN5index2upEv                 ## -- Begin function _ZN5index2upEv
	.weak_definition	__ZN5index2upEv
	.p2align	4, 0x90
__ZN5index2upEv:                        ## @_ZN5index2upEv
	.cfi_startproc
## %bb.0:
	push	rbp
	.cfi_def_cfa_offset 16
	.cfi_offset rbp, -16
	mov	rbp, rsp
	.cfi_def_cfa_register rbp
	sub	rsp, 32
	mov	qword ptr [rbp - 16], rdi
	mov	rax, qword ptr [rbp - 16]
	mov	ecx, dword ptr [rax + 4]
	add	ecx, 1
	mov	dword ptr [rbp - 20], ecx
	mov	rdi, rax
	lea	rsi, [rbp - 20]
	call	__ZNSt3__1L9make_pairIRiiEENS_4pairINS_18__unwrap_ref_decayIT_E4typeENS3_IT0_E4typeEEEOS4_OS7_
	mov	qword ptr [rbp - 8], rax
	mov	rax, qword ptr [rbp - 8]
	add	rsp, 32
	pop	rbp
	ret
	.cfi_endproc
                                        ## -- End function
	.globl	__ZN5index4downEv               ## -- Begin function _ZN5index4downEv
	.weak_definition	__ZN5index4downEv
	.p2align	4, 0x90
__ZN5index4downEv:                      ## @_ZN5index4downEv
	.cfi_startproc
## %bb.0:
	push	rbp
	.cfi_def_cfa_offset 16
	.cfi_offset rbp, -16
	mov	rbp, rsp
	.cfi_def_cfa_register rbp
	sub	rsp, 32
	mov	qword ptr [rbp - 16], rdi
	mov	rax, qword ptr [rbp - 16]
	mov	ecx, dword ptr [rax + 4]
	sub	ecx, 1
	mov	dword ptr [rbp - 20], ecx
	mov	rdi, rax
	lea	rsi, [rbp - 20]
	call	__ZNSt3__1L9make_pairIRiiEENS_4pairINS_18__unwrap_ref_decayIT_E4typeENS3_IT0_E4typeEEEOS4_OS7_
	mov	qword ptr [rbp - 8], rax
	mov	rax, qword ptr [rbp - 8]
	add	rsp, 32
	pop	rbp
	ret
	.cfi_endproc
                                        ## -- End function
	.globl	__ZN5index4leftEv               ## -- Begin function _ZN5index4leftEv
	.weak_definition	__ZN5index4leftEv
	.p2align	4, 0x90
__ZN5index4leftEv:                      ## @_ZN5index4leftEv
	.cfi_startproc
## %bb.0:
	push	rbp
	.cfi_def_cfa_offset 16
	.cfi_offset rbp, -16
	mov	rbp, rsp
	.cfi_def_cfa_register rbp
	sub	rsp, 32
	mov	qword ptr [rbp - 16], rdi
	mov	rax, qword ptr [rbp - 16]
	mov	ecx, dword ptr [rax]
	sub	ecx, 1
	mov	dword ptr [rbp - 20], ecx
	add	rax, 4
	lea	rdi, [rbp - 20]
	mov	rsi, rax
	call	__ZNSt3__1L9make_pairIiRiEENS_4pairINS_18__unwrap_ref_decayIT_E4typeENS3_IT0_E4typeEEEOS4_OS7_
	mov	qword ptr [rbp - 8], rax
	mov	rax, qword ptr [rbp - 8]
	add	rsp, 32
	pop	rbp
	ret
	.cfi_endproc
                                        ## -- End function
	.globl	__ZN5index5rightEv              ## -- Begin function _ZN5index5rightEv
	.weak_definition	__ZN5index5rightEv
	.p2align	4, 0x90
__ZN5index5rightEv:                     ## @_ZN5index5rightEv
	.cfi_startproc
## %bb.0:
	push	rbp
	.cfi_def_cfa_offset 16
	.cfi_offset rbp, -16
	mov	rbp, rsp
	.cfi_def_cfa_register rbp
	sub	rsp, 32
	mov	qword ptr [rbp - 16], rdi
	mov	rax, qword ptr [rbp - 16]
	mov	ecx, dword ptr [rax]
	add	ecx, 1
	mov	dword ptr [rbp - 20], ecx
	add	rax, 4
	lea	rdi, [rbp - 20]
	mov	rsi, rax
	call	__ZNSt3__1L9make_pairIiRiEENS_4pairINS_18__unwrap_ref_decayIT_E4typeENS3_IT0_E4typeEEEOS4_OS7_
	mov	qword ptr [rbp - 8], rax
	mov	rax, qword ptr [rbp - 8]
	add	rsp, 32
	pop	rbp
	ret
	.cfi_endproc
                                        ## -- End function
	.globl	__ZNSt3__15dequeINS_4pairIiiEENS_9allocatorIS2_EEE9pop_frontEv ## -- Begin function _ZNSt3__15dequeINS_4pairIiiEENS_9allocatorIS2_EEE9pop_frontEv
	.weak_definition	__ZNSt3__15dequeINS_4pairIiiEENS_9allocatorIS2_EEE9pop_frontEv
	.p2align	4, 0x90
__ZNSt3__15dequeINS_4pairIiiEENS_9allocatorIS2_EEE9pop_frontEv: ## @_ZNSt3__15dequeINS_4pairIiiEENS_9allocatorIS2_EEE9pop_frontEv
	.cfi_startproc
## %bb.0:
	push	rbp
	.cfi_def_cfa_offset 16
	.cfi_offset rbp, -16
	mov	rbp, rsp
	.cfi_def_cfa_register rbp
	sub	rsp, 32
	mov	qword ptr [rbp - 8], rdi
	mov	rax, qword ptr [rbp - 8]
	mov	rcx, rax
	mov	rdi, rcx
	mov	qword ptr [rbp - 24], rax       ## 8-byte Spill
	call	__ZNSt3__112__deque_baseINS_4pairIiiEENS_9allocatorIS2_EEE7__allocEv
	mov	qword ptr [rbp - 16], rax
	mov	rdi, qword ptr [rbp - 16]
	mov	rax, qword ptr [rbp - 24]       ## 8-byte Reload
	mov	qword ptr [rbp - 32], rdi       ## 8-byte Spill
	mov	rdi, rax
	call	__ZNSt3__114__split_bufferIPNS_4pairIiiEENS_9allocatorIS3_EEE5beginEv
	mov	rcx, qword ptr [rbp - 24]       ## 8-byte Reload
	mov	rdx, qword ptr [rcx + 32]
	shr	rdx, 9
	mov	rax, qword ptr [rax + 8*rdx]
	mov	rdx, qword ptr [rcx + 32]
	and	rdx, 511
	shl	rdx, 3
	add	rax, rdx
	mov	rdi, rax
	call	__ZNSt3__1L12__to_addressINS_4pairIiiEEEEPT_S4_
	mov	rdi, qword ptr [rbp - 32]       ## 8-byte Reload
	mov	rsi, rax
	call	__ZNSt3__116allocator_traitsINS_9allocatorINS_4pairIiiEEEEE7destroyIS3_EEvRS4_PT_
	mov	rax, qword ptr [rbp - 24]       ## 8-byte Reload
	mov	rdi, rax
	call	__ZNSt3__112__deque_baseINS_4pairIiiEENS_9allocatorIS2_EEE4sizeEv
	mov	rcx, qword ptr [rax]
	add	rcx, -1
	mov	qword ptr [rax], rcx
	mov	rax, qword ptr [rbp - 24]       ## 8-byte Reload
	mov	rcx, qword ptr [rax + 32]
	add	rcx, 1
	mov	qword ptr [rax + 32], rcx
	mov	rdi, rax
	mov	esi, 1
	call	__ZNSt3__15dequeINS_4pairIiiEENS_9allocatorIS2_EEE26__maybe_remove_front_spareEb
	add	rsp, 32
	pop	rbp
	ret
	.cfi_endproc
                                        ## -- End function
	.p2align	4, 0x90                         ## -- Begin function _ZNSt3__13setINS_4pairIiiEENS_4lessIS2_EENS_9allocatorIS2_EEED1Ev
__ZNSt3__13setINS_4pairIiiEENS_4lessIS2_EENS_9allocatorIS2_EEED1Ev: ## @_ZNSt3__13setINS_4pairIiiEENS_4lessIS2_EENS_9allocatorIS2_EEED1Ev
	.cfi_startproc
## %bb.0:
	push	rbp
	.cfi_def_cfa_offset 16
	.cfi_offset rbp, -16
	mov	rbp, rsp
	.cfi_def_cfa_register rbp
	sub	rsp, 16
	mov	qword ptr [rbp - 8], rdi
	mov	rdi, qword ptr [rbp - 8]
	call	__ZNSt3__13setINS_4pairIiiEENS_4lessIS2_EENS_9allocatorIS2_EEED2Ev
	add	rsp, 16
	pop	rbp
	ret
	.cfi_endproc
                                        ## -- End function
	.globl	__ZNSt3__15dequeINS_4pairIiiEENS_9allocatorIS2_EEED1Ev ## -- Begin function _ZNSt3__15dequeINS_4pairIiiEENS_9allocatorIS2_EEED1Ev
	.weak_def_can_be_hidden	__ZNSt3__15dequeINS_4pairIiiEENS_9allocatorIS2_EEED1Ev
	.p2align	4, 0x90
__ZNSt3__15dequeINS_4pairIiiEENS_9allocatorIS2_EEED1Ev: ## @_ZNSt3__15dequeINS_4pairIiiEENS_9allocatorIS2_EEED1Ev
	.cfi_startproc
## %bb.0:
	push	rbp
	.cfi_def_cfa_offset 16
	.cfi_offset rbp, -16
	mov	rbp, rsp
	.cfi_def_cfa_register rbp
	sub	rsp, 16
	mov	qword ptr [rbp - 8], rdi
	mov	rdi, qword ptr [rbp - 8]
	call	__ZNSt3__15dequeINS_4pairIiiEENS_9allocatorIS2_EEED2Ev
	add	rsp, 16
	pop	rbp
	ret
	.cfi_endproc
                                        ## -- End function
	.p2align	4, 0x90                         ## -- Begin function _ZNSt3__15dequeINS_4pairIiiEENS_9allocatorIS2_EEEC2Ev
__ZNSt3__15dequeINS_4pairIiiEENS_9allocatorIS2_EEEC2Ev: ## @_ZNSt3__15dequeINS_4pairIiiEENS_9allocatorIS2_EEEC2Ev
	.cfi_startproc
## %bb.0:
	push	rbp
	.cfi_def_cfa_offset 16
	.cfi_offset rbp, -16
	mov	rbp, rsp
	.cfi_def_cfa_register rbp
	sub	rsp, 16
	mov	qword ptr [rbp - 8], rdi
	mov	rax, qword ptr [rbp - 8]
	mov	rdi, rax
	call	__ZNSt3__112__deque_baseINS_4pairIiiEENS_9allocatorIS2_EEEC2Ev
	add	rsp, 16
	pop	rbp
	ret
	.cfi_endproc
                                        ## -- End function
	.p2align	4, 0x90                         ## -- Begin function _ZNSt3__112__deque_baseINS_4pairIiiEENS_9allocatorIS2_EEEC2Ev
__ZNSt3__112__deque_baseINS_4pairIiiEENS_9allocatorIS2_EEEC2Ev: ## @_ZNSt3__112__deque_baseINS_4pairIiiEENS_9allocatorIS2_EEEC2Ev
Lfunc_begin19:
	.cfi_startproc
	.cfi_personality 155, ___gxx_personality_v0
	.cfi_lsda 16, Lexception19
## %bb.0:
	push	rbp
	.cfi_def_cfa_offset 16
	.cfi_offset rbp, -16
	mov	rbp, rsp
	.cfi_def_cfa_register rbp
	sub	rsp, 48
	mov	qword ptr [rbp - 8], rdi
	mov	rax, qword ptr [rbp - 8]
	mov	rdi, rax
	mov	qword ptr [rbp - 40], rax       ## 8-byte Spill
	call	__ZNSt3__114__split_bufferIPNS_4pairIiiEENS_9allocatorIS3_EEEC1Ev
	mov	rax, qword ptr [rbp - 40]       ## 8-byte Reload
	mov	qword ptr [rax + 32], 0
	add	rax, 40
	mov	dword ptr [rbp - 12], 0
Ltmp128:
	lea	rsi, [rbp - 12]
	lea	rdx, [rbp - 16]
	mov	rdi, rax
	call	__ZNSt3__117__compressed_pairImNS_9allocatorINS_4pairIiiEEEEEC1IiNS_18__default_init_tagEEEOT_OT0_
Ltmp129:
	jmp	LBB179_1
LBB179_1:
	add	rsp, 48
	pop	rbp
	ret
LBB179_2:
Ltmp130:
                                        ## kill: def $edx killed $edx killed $rdx
	mov	qword ptr [rbp - 24], rax
	mov	dword ptr [rbp - 28], edx
	mov	rdi, qword ptr [rbp - 40]       ## 8-byte Reload
	call	__ZNSt3__114__split_bufferIPNS_4pairIiiEENS_9allocatorIS3_EEED1Ev
## %bb.3:
	mov	rdi, qword ptr [rbp - 24]
	call	___clang_call_terminate
Lfunc_end19:
	.cfi_endproc
	.section	__TEXT,__gcc_except_tab
	.p2align	2
GCC_except_table179:
Lexception19:
	.byte	255                             ## @LPStart Encoding = omit
	.byte	155                             ## @TType Encoding = indirect pcrel sdata4
	.uleb128 Lttbase10-Lttbaseref10
Lttbaseref10:
	.byte	1                               ## Call site Encoding = uleb128
	.uleb128 Lcst_end19-Lcst_begin19
Lcst_begin19:
	.uleb128 Ltmp128-Lfunc_begin19          ## >> Call Site 1 <<
	.uleb128 Ltmp129-Ltmp128                ##   Call between Ltmp128 and Ltmp129
	.uleb128 Ltmp130-Lfunc_begin19          ##     jumps to Ltmp130
	.byte	1                               ##   On action: 1
Lcst_end19:
	.byte	1                               ## >> Action Record 1 <<
                                        ##   Catch TypeInfo 1
	.byte	0                               ##   No further actions
	.p2align	2
                                        ## >> Catch TypeInfos <<
	.long	0                               ## TypeInfo 1
Lttbase10:
	.p2align	2
                                        ## -- End function
	.section	__TEXT,__text,regular,pure_instructions
	.p2align	4, 0x90                         ## -- Begin function _ZNSt3__114__split_bufferIPNS_4pairIiiEENS_9allocatorIS3_EEEC1Ev
__ZNSt3__114__split_bufferIPNS_4pairIiiEENS_9allocatorIS3_EEEC1Ev: ## @_ZNSt3__114__split_bufferIPNS_4pairIiiEENS_9allocatorIS3_EEEC1Ev
	.cfi_startproc
## %bb.0:
	push	rbp
	.cfi_def_cfa_offset 16
	.cfi_offset rbp, -16
	mov	rbp, rsp
	.cfi_def_cfa_register rbp
	sub	rsp, 16
	mov	qword ptr [rbp - 8], rdi
	mov	rdi, qword ptr [rbp - 8]
	call	__ZNSt3__114__split_bufferIPNS_4pairIiiEENS_9allocatorIS3_EEEC2Ev
	add	rsp, 16
	pop	rbp
	ret
	.cfi_endproc
                                        ## -- End function
	.p2align	4, 0x90                         ## -- Begin function _ZNSt3__117__compressed_pairImNS_9allocatorINS_4pairIiiEEEEEC1IiNS_18__default_init_tagEEEOT_OT0_
__ZNSt3__117__compressed_pairImNS_9allocatorINS_4pairIiiEEEEEC1IiNS_18__default_init_tagEEEOT_OT0_: ## @_ZNSt3__117__compressed_pairImNS_9allocatorINS_4pairIiiEEEEEC1IiNS_18__default_init_tagEEEOT_OT0_
	.cfi_startproc
## %bb.0:
	push	rbp
	.cfi_def_cfa_offset 16
	.cfi_offset rbp, -16
	mov	rbp, rsp
	.cfi_def_cfa_register rbp
	sub	rsp, 32
	mov	qword ptr [rbp - 8], rdi
	mov	qword ptr [rbp - 16], rsi
	mov	qword ptr [rbp - 24], rdx
	mov	rdi, qword ptr [rbp - 8]
	mov	rsi, qword ptr [rbp - 16]
	mov	rdx, qword ptr [rbp - 24]
	call	__ZNSt3__117__compressed_pairImNS_9allocatorINS_4pairIiiEEEEEC2IiNS_18__default_init_tagEEEOT_OT0_
	add	rsp, 32
	pop	rbp
	ret
	.cfi_endproc
                                        ## -- End function
	.globl	__ZNSt3__114__split_bufferIPNS_4pairIiiEENS_9allocatorIS3_EEED1Ev ## -- Begin function _ZNSt3__114__split_bufferIPNS_4pairIiiEENS_9allocatorIS3_EEED1Ev
	.weak_def_can_be_hidden	__ZNSt3__114__split_bufferIPNS_4pairIiiEENS_9allocatorIS3_EEED1Ev
	.p2align	4, 0x90
__ZNSt3__114__split_bufferIPNS_4pairIiiEENS_9allocatorIS3_EEED1Ev: ## @_ZNSt3__114__split_bufferIPNS_4pairIiiEENS_9allocatorIS3_EEED1Ev
	.cfi_startproc
## %bb.0:
	push	rbp
	.cfi_def_cfa_offset 16
	.cfi_offset rbp, -16
	mov	rbp, rsp
	.cfi_def_cfa_register rbp
	sub	rsp, 16
	mov	qword ptr [rbp - 8], rdi
	mov	rdi, qword ptr [rbp - 8]
	call	__ZNSt3__114__split_bufferIPNS_4pairIiiEENS_9allocatorIS3_EEED2Ev
	add	rsp, 16
	pop	rbp
	ret
	.cfi_endproc
                                        ## -- End function
	.p2align	4, 0x90                         ## -- Begin function _ZNSt3__114__split_bufferIPNS_4pairIiiEENS_9allocatorIS3_EEEC2Ev
__ZNSt3__114__split_bufferIPNS_4pairIiiEENS_9allocatorIS3_EEEC2Ev: ## @_ZNSt3__114__split_bufferIPNS_4pairIiiEENS_9allocatorIS3_EEEC2Ev
Lfunc_begin20:
	.cfi_startproc
	.cfi_personality 155, ___gxx_personality_v0
	.cfi_lsda 16, Lexception20
## %bb.0:
	push	rbp
	.cfi_def_cfa_offset 16
	.cfi_offset rbp, -16
	mov	rbp, rsp
	.cfi_def_cfa_register rbp
	sub	rsp, 32
	mov	qword ptr [rbp - 8], rdi
	mov	rax, qword ptr [rbp - 8]
	mov	qword ptr [rax], 0
	mov	qword ptr [rax + 8], 0
	mov	qword ptr [rax + 16], 0
	add	rax, 24
	mov	qword ptr [rbp - 16], 0
Ltmp131:
	lea	rsi, [rbp - 16]
	lea	rdx, [rbp - 24]
	mov	rdi, rax
	call	__ZNSt3__117__compressed_pairIPPNS_4pairIiiEENS_9allocatorIS3_EEEC1IDnNS_18__default_init_tagEEEOT_OT0_
Ltmp132:
	jmp	LBB183_1
LBB183_1:
	add	rsp, 32
	pop	rbp
	ret
LBB183_2:
Ltmp133:
	mov	rdi, rax
	mov	qword ptr [rbp - 32], rdx       ## 8-byte Spill
	call	___clang_call_terminate
Lfunc_end20:
	.cfi_endproc
	.section	__TEXT,__gcc_except_tab
	.p2align	2
GCC_except_table183:
Lexception20:
	.byte	255                             ## @LPStart Encoding = omit
	.byte	155                             ## @TType Encoding = indirect pcrel sdata4
	.uleb128 Lttbase11-Lttbaseref11
Lttbaseref11:
	.byte	1                               ## Call site Encoding = uleb128
	.uleb128 Lcst_end20-Lcst_begin20
Lcst_begin20:
	.uleb128 Ltmp131-Lfunc_begin20          ## >> Call Site 1 <<
	.uleb128 Ltmp132-Ltmp131                ##   Call between Ltmp131 and Ltmp132
	.uleb128 Ltmp133-Lfunc_begin20          ##     jumps to Ltmp133
	.byte	1                               ##   On action: 1
Lcst_end20:
	.byte	1                               ## >> Action Record 1 <<
                                        ##   Catch TypeInfo 1
	.byte	0                               ##   No further actions
	.p2align	2
                                        ## >> Catch TypeInfos <<
	.long	0                               ## TypeInfo 1
Lttbase11:
	.p2align	2
                                        ## -- End function
	.section	__TEXT,__text,regular,pure_instructions
	.p2align	4, 0x90                         ## -- Begin function _ZNSt3__117__compressed_pairIPPNS_4pairIiiEENS_9allocatorIS3_EEEC1IDnNS_18__default_init_tagEEEOT_OT0_
__ZNSt3__117__compressed_pairIPPNS_4pairIiiEENS_9allocatorIS3_EEEC1IDnNS_18__default_init_tagEEEOT_OT0_: ## @_ZNSt3__117__compressed_pairIPPNS_4pairIiiEENS_9allocatorIS3_EEEC1IDnNS_18__default_init_tagEEEOT_OT0_
	.cfi_startproc
## %bb.0:
	push	rbp
	.cfi_def_cfa_offset 16
	.cfi_offset rbp, -16
	mov	rbp, rsp
	.cfi_def_cfa_register rbp
	sub	rsp, 32
	mov	qword ptr [rbp - 8], rdi
	mov	qword ptr [rbp - 16], rsi
	mov	qword ptr [rbp - 24], rdx
	mov	rdi, qword ptr [rbp - 8]
	mov	rsi, qword ptr [rbp - 16]
	mov	rdx, qword ptr [rbp - 24]
	call	__ZNSt3__117__compressed_pairIPPNS_4pairIiiEENS_9allocatorIS3_EEEC2IDnNS_18__default_init_tagEEEOT_OT0_
	add	rsp, 32
	pop	rbp
	ret
	.cfi_endproc
                                        ## -- End function
	.p2align	4, 0x90                         ## -- Begin function _ZNSt3__117__compressed_pairIPPNS_4pairIiiEENS_9allocatorIS3_EEEC2IDnNS_18__default_init_tagEEEOT_OT0_
__ZNSt3__117__compressed_pairIPPNS_4pairIiiEENS_9allocatorIS3_EEEC2IDnNS_18__default_init_tagEEEOT_OT0_: ## @_ZNSt3__117__compressed_pairIPPNS_4pairIiiEENS_9allocatorIS3_EEEC2IDnNS_18__default_init_tagEEEOT_OT0_
	.cfi_startproc
## %bb.0:
	push	rbp
	.cfi_def_cfa_offset 16
	.cfi_offset rbp, -16
	mov	rbp, rsp
	.cfi_def_cfa_register rbp
	sub	rsp, 64
	mov	qword ptr [rbp - 8], rdi
	mov	qword ptr [rbp - 16], rsi
	mov	qword ptr [rbp - 24], rdx
	mov	rax, qword ptr [rbp - 8]
	mov	rcx, rax
	mov	rdi, qword ptr [rbp - 16]
	mov	qword ptr [rbp - 40], rax       ## 8-byte Spill
	mov	qword ptr [rbp - 48], rcx       ## 8-byte Spill
	call	__ZNSt3__1L7forwardIDnEEOT_RNS_16remove_referenceIS1_E4typeE
	mov	rdi, qword ptr [rbp - 48]       ## 8-byte Reload
	mov	rsi, rax
	call	__ZNSt3__122__compressed_pair_elemIPPNS_4pairIiiEELi0ELb0EEC2IDnvEEOT_
	mov	rax, qword ptr [rbp - 40]       ## 8-byte Reload
	mov	rdi, qword ptr [rbp - 24]
	mov	qword ptr [rbp - 56], rax       ## 8-byte Spill
	call	__ZNSt3__1L7forwardINS_18__default_init_tagEEEOT_RNS_16remove_referenceIS2_E4typeE
	mov	rdi, qword ptr [rbp - 56]       ## 8-byte Reload
	mov	qword ptr [rbp - 64], rax       ## 8-byte Spill
	call	__ZNSt3__122__compressed_pair_elemINS_9allocatorIPNS_4pairIiiEEEELi1ELb1EEC2ENS_18__default_init_tagE
	add	rsp, 64
	pop	rbp
	ret
	.cfi_endproc
                                        ## -- End function
	.p2align	4, 0x90                         ## -- Begin function _ZNSt3__122__compressed_pair_elemIPPNS_4pairIiiEELi0ELb0EEC2IDnvEEOT_
__ZNSt3__122__compressed_pair_elemIPPNS_4pairIiiEELi0ELb0EEC2IDnvEEOT_: ## @_ZNSt3__122__compressed_pair_elemIPPNS_4pairIiiEELi0ELb0EEC2IDnvEEOT_
	.cfi_startproc
## %bb.0:
	push	rbp
	.cfi_def_cfa_offset 16
	.cfi_offset rbp, -16
	mov	rbp, rsp
	.cfi_def_cfa_register rbp
	sub	rsp, 32
	mov	qword ptr [rbp - 8], rdi
	mov	qword ptr [rbp - 16], rsi
	mov	rax, qword ptr [rbp - 8]
	mov	rdi, qword ptr [rbp - 16]
	mov	qword ptr [rbp - 24], rax       ## 8-byte Spill
	call	__ZNSt3__1L7forwardIDnEEOT_RNS_16remove_referenceIS1_E4typeE
	mov	rcx, qword ptr [rbp - 24]       ## 8-byte Reload
	mov	qword ptr [rcx], 0
	add	rsp, 32
	pop	rbp
	ret
	.cfi_endproc
                                        ## -- End function
	.p2align	4, 0x90                         ## -- Begin function _ZNSt3__122__compressed_pair_elemINS_9allocatorIPNS_4pairIiiEEEELi1ELb1EEC2ENS_18__default_init_tagE
__ZNSt3__122__compressed_pair_elemINS_9allocatorIPNS_4pairIiiEEEELi1ELb1EEC2ENS_18__default_init_tagE: ## @_ZNSt3__122__compressed_pair_elemINS_9allocatorIPNS_4pairIiiEEEELi1ELb1EEC2ENS_18__default_init_tagE
	.cfi_startproc
## %bb.0:
	push	rbp
	.cfi_def_cfa_offset 16
	.cfi_offset rbp, -16
	mov	rbp, rsp
	.cfi_def_cfa_register rbp
	sub	rsp, 16
	mov	qword ptr [rbp - 16], rdi
	mov	rax, qword ptr [rbp - 16]
	mov	rdi, rax
	call	__ZNSt3__19allocatorIPNS_4pairIiiEEEC2Ev
	add	rsp, 16
	pop	rbp
	ret
	.cfi_endproc
                                        ## -- End function
	.p2align	4, 0x90                         ## -- Begin function _ZNSt3__19allocatorIPNS_4pairIiiEEEC2Ev
__ZNSt3__19allocatorIPNS_4pairIiiEEEC2Ev: ## @_ZNSt3__19allocatorIPNS_4pairIiiEEEC2Ev
	.cfi_startproc
## %bb.0:
	push	rbp
	.cfi_def_cfa_offset 16
	.cfi_offset rbp, -16
	mov	rbp, rsp
	.cfi_def_cfa_register rbp
	mov	qword ptr [rbp - 8], rdi
	pop	rbp
	ret
	.cfi_endproc
                                        ## -- End function
	.p2align	4, 0x90                         ## -- Begin function _ZNSt3__117__compressed_pairImNS_9allocatorINS_4pairIiiEEEEEC2IiNS_18__default_init_tagEEEOT_OT0_
__ZNSt3__117__compressed_pairImNS_9allocatorINS_4pairIiiEEEEEC2IiNS_18__default_init_tagEEEOT_OT0_: ## @_ZNSt3__117__compressed_pairImNS_9allocatorINS_4pairIiiEEEEEC2IiNS_18__default_init_tagEEEOT_OT0_
	.cfi_startproc
## %bb.0:
	push	rbp
	.cfi_def_cfa_offset 16
	.cfi_offset rbp, -16
	mov	rbp, rsp
	.cfi_def_cfa_register rbp
	sub	rsp, 64
	mov	qword ptr [rbp - 8], rdi
	mov	qword ptr [rbp - 16], rsi
	mov	qword ptr [rbp - 24], rdx
	mov	rax, qword ptr [rbp - 8]
	mov	rcx, rax
	mov	rdi, qword ptr [rbp - 16]
	mov	qword ptr [rbp - 40], rax       ## 8-byte Spill
	mov	qword ptr [rbp - 48], rcx       ## 8-byte Spill
	call	__ZNSt3__1L7forwardIiEEOT_RNS_16remove_referenceIS1_E4typeE
	mov	rdi, qword ptr [rbp - 48]       ## 8-byte Reload
	mov	rsi, rax
	call	__ZNSt3__122__compressed_pair_elemImLi0ELb0EEC2IivEEOT_
	mov	rax, qword ptr [rbp - 40]       ## 8-byte Reload
	mov	rdi, qword ptr [rbp - 24]
	mov	qword ptr [rbp - 56], rax       ## 8-byte Spill
	call	__ZNSt3__1L7forwardINS_18__default_init_tagEEEOT_RNS_16remove_referenceIS2_E4typeE
	mov	rdi, qword ptr [rbp - 56]       ## 8-byte Reload
	mov	qword ptr [rbp - 64], rax       ## 8-byte Spill
	call	__ZNSt3__122__compressed_pair_elemINS_9allocatorINS_4pairIiiEEEELi1ELb1EEC2ENS_18__default_init_tagE
	add	rsp, 64
	pop	rbp
	ret
	.cfi_endproc
                                        ## -- End function
	.p2align	4, 0x90                         ## -- Begin function _ZNSt3__1L7forwardIiEEOT_RNS_16remove_referenceIS1_E4typeE
__ZNSt3__1L7forwardIiEEOT_RNS_16remove_referenceIS1_E4typeE: ## @_ZNSt3__1L7forwardIiEEOT_RNS_16remove_referenceIS1_E4typeE
	.cfi_startproc
## %bb.0:
	push	rbp
	.cfi_def_cfa_offset 16
	.cfi_offset rbp, -16
	mov	rbp, rsp
	.cfi_def_cfa_register rbp
	mov	qword ptr [rbp - 8], rdi
	mov	rax, qword ptr [rbp - 8]
	pop	rbp
	ret
	.cfi_endproc
                                        ## -- End function
	.p2align	4, 0x90                         ## -- Begin function _ZNSt3__122__compressed_pair_elemImLi0ELb0EEC2IivEEOT_
__ZNSt3__122__compressed_pair_elemImLi0ELb0EEC2IivEEOT_: ## @_ZNSt3__122__compressed_pair_elemImLi0ELb0EEC2IivEEOT_
	.cfi_startproc
## %bb.0:
	push	rbp
	.cfi_def_cfa_offset 16
	.cfi_offset rbp, -16
	mov	rbp, rsp
	.cfi_def_cfa_register rbp
	sub	rsp, 32
	mov	qword ptr [rbp - 8], rdi
	mov	qword ptr [rbp - 16], rsi
	mov	rax, qword ptr [rbp - 8]
	mov	rdi, qword ptr [rbp - 16]
	mov	qword ptr [rbp - 24], rax       ## 8-byte Spill
	call	__ZNSt3__1L7forwardIiEEOT_RNS_16remove_referenceIS1_E4typeE
	movsxd	rax, dword ptr [rax]
	mov	rcx, qword ptr [rbp - 24]       ## 8-byte Reload
	mov	qword ptr [rcx], rax
	add	rsp, 32
	pop	rbp
	ret
	.cfi_endproc
                                        ## -- End function
	.p2align	4, 0x90                         ## -- Begin function _ZNSt3__122__compressed_pair_elemINS_9allocatorINS_4pairIiiEEEELi1ELb1EEC2ENS_18__default_init_tagE
__ZNSt3__122__compressed_pair_elemINS_9allocatorINS_4pairIiiEEEELi1ELb1EEC2ENS_18__default_init_tagE: ## @_ZNSt3__122__compressed_pair_elemINS_9allocatorINS_4pairIiiEEEELi1ELb1EEC2ENS_18__default_init_tagE
	.cfi_startproc
## %bb.0:
	push	rbp
	.cfi_def_cfa_offset 16
	.cfi_offset rbp, -16
	mov	rbp, rsp
	.cfi_def_cfa_register rbp
	sub	rsp, 16
	mov	qword ptr [rbp - 16], rdi
	mov	rax, qword ptr [rbp - 16]
	mov	rdi, rax
	call	__ZNSt3__19allocatorINS_4pairIiiEEEC2Ev
	add	rsp, 16
	pop	rbp
	ret
	.cfi_endproc
                                        ## -- End function
	.p2align	4, 0x90                         ## -- Begin function _ZNSt3__19allocatorINS_4pairIiiEEEC2Ev
__ZNSt3__19allocatorINS_4pairIiiEEEC2Ev: ## @_ZNSt3__19allocatorINS_4pairIiiEEEC2Ev
	.cfi_startproc
## %bb.0:
	push	rbp
	.cfi_def_cfa_offset 16
	.cfi_offset rbp, -16
	mov	rbp, rsp
	.cfi_def_cfa_register rbp
	mov	qword ptr [rbp - 8], rdi
	pop	rbp
	ret
	.cfi_endproc
                                        ## -- End function
	.globl	__ZNSt3__114__split_bufferIPNS_4pairIiiEENS_9allocatorIS3_EEED2Ev ## -- Begin function _ZNSt3__114__split_bufferIPNS_4pairIiiEENS_9allocatorIS3_EEED2Ev
	.weak_def_can_be_hidden	__ZNSt3__114__split_bufferIPNS_4pairIiiEENS_9allocatorIS3_EEED2Ev
	.p2align	4, 0x90
__ZNSt3__114__split_bufferIPNS_4pairIiiEENS_9allocatorIS3_EEED2Ev: ## @_ZNSt3__114__split_bufferIPNS_4pairIiiEENS_9allocatorIS3_EEED2Ev
Lfunc_begin21:
	.cfi_startproc
	.cfi_personality 155, ___gxx_personality_v0
	.cfi_lsda 16, Lexception21
## %bb.0:
	push	rbp
	.cfi_def_cfa_offset 16
	.cfi_offset rbp, -16
	mov	rbp, rsp
	.cfi_def_cfa_register rbp
	sub	rsp, 48
	mov	qword ptr [rbp - 8], rdi
	mov	rax, qword ptr [rbp - 8]
	mov	rdi, rax
	mov	qword ptr [rbp - 16], rax       ## 8-byte Spill
	call	__ZNSt3__114__split_bufferIPNS_4pairIiiEENS_9allocatorIS3_EEE5clearEv
	mov	rax, qword ptr [rbp - 16]       ## 8-byte Reload
	cmp	qword ptr [rax], 0
	je	LBB194_3
## %bb.1:
	mov	rdi, qword ptr [rbp - 16]       ## 8-byte Reload
	call	__ZNSt3__114__split_bufferIPNS_4pairIiiEENS_9allocatorIS3_EEE7__allocEv
	mov	rcx, qword ptr [rbp - 16]       ## 8-byte Reload
	mov	rsi, qword ptr [rcx]
Ltmp134:
	mov	rdi, rcx
	mov	qword ptr [rbp - 24], rax       ## 8-byte Spill
	mov	qword ptr [rbp - 32], rsi       ## 8-byte Spill
	call	__ZNKSt3__114__split_bufferIPNS_4pairIiiEENS_9allocatorIS3_EEE8capacityEv
Ltmp135:
	mov	qword ptr [rbp - 40], rax       ## 8-byte Spill
	jmp	LBB194_2
LBB194_2:
	mov	rdi, qword ptr [rbp - 24]       ## 8-byte Reload
	mov	rsi, qword ptr [rbp - 32]       ## 8-byte Reload
	mov	rdx, qword ptr [rbp - 40]       ## 8-byte Reload
	call	__ZNSt3__116allocator_traitsINS_9allocatorIPNS_4pairIiiEEEEE10deallocateERS5_PS4_m
LBB194_3:
	add	rsp, 48
	pop	rbp
	ret
LBB194_4:
Ltmp136:
	mov	rdi, rax
	mov	qword ptr [rbp - 48], rdx       ## 8-byte Spill
	call	___clang_call_terminate
Lfunc_end21:
	.cfi_endproc
	.section	__TEXT,__gcc_except_tab
	.p2align	2
GCC_except_table194:
Lexception21:
	.byte	255                             ## @LPStart Encoding = omit
	.byte	155                             ## @TType Encoding = indirect pcrel sdata4
	.uleb128 Lttbase12-Lttbaseref12
Lttbaseref12:
	.byte	1                               ## Call site Encoding = uleb128
	.uleb128 Lcst_end21-Lcst_begin21
Lcst_begin21:
	.uleb128 Ltmp134-Lfunc_begin21          ## >> Call Site 1 <<
	.uleb128 Ltmp135-Ltmp134                ##   Call between Ltmp134 and Ltmp135
	.uleb128 Ltmp136-Lfunc_begin21          ##     jumps to Ltmp136
	.byte	1                               ##   On action: 1
Lcst_end21:
	.byte	1                               ## >> Action Record 1 <<
                                        ##   Catch TypeInfo 1
	.byte	0                               ##   No further actions
	.p2align	2
                                        ## >> Catch TypeInfos <<
	.long	0                               ## TypeInfo 1
Lttbase12:
	.p2align	2
                                        ## -- End function
	.section	__TEXT,__text,regular,pure_instructions
	.p2align	4, 0x90                         ## -- Begin function _ZNSt3__114__split_bufferIPNS_4pairIiiEENS_9allocatorIS3_EEE5clearEv
__ZNSt3__114__split_bufferIPNS_4pairIiiEENS_9allocatorIS3_EEE5clearEv: ## @_ZNSt3__114__split_bufferIPNS_4pairIiiEENS_9allocatorIS3_EEE5clearEv
	.cfi_startproc
## %bb.0:
	push	rbp
	.cfi_def_cfa_offset 16
	.cfi_offset rbp, -16
	mov	rbp, rsp
	.cfi_def_cfa_register rbp
	sub	rsp, 16
	mov	qword ptr [rbp - 8], rdi
	mov	rax, qword ptr [rbp - 8]
	mov	rsi, qword ptr [rax + 8]
	mov	rdi, rax
	call	__ZNSt3__114__split_bufferIPNS_4pairIiiEENS_9allocatorIS3_EEE17__destruct_at_endEPS3_
	add	rsp, 16
	pop	rbp
	ret
	.cfi_endproc
                                        ## -- End function
	.p2align	4, 0x90                         ## -- Begin function _ZNSt3__116allocator_traitsINS_9allocatorIPNS_4pairIiiEEEEE10deallocateERS5_PS4_m
__ZNSt3__116allocator_traitsINS_9allocatorIPNS_4pairIiiEEEEE10deallocateERS5_PS4_m: ## @_ZNSt3__116allocator_traitsINS_9allocatorIPNS_4pairIiiEEEEE10deallocateERS5_PS4_m
	.cfi_startproc
## %bb.0:
	push	rbp
	.cfi_def_cfa_offset 16
	.cfi_offset rbp, -16
	mov	rbp, rsp
	.cfi_def_cfa_register rbp
	sub	rsp, 32
	mov	qword ptr [rbp - 8], rdi
	mov	qword ptr [rbp - 16], rsi
	mov	qword ptr [rbp - 24], rdx
	mov	rdi, qword ptr [rbp - 8]
	mov	rsi, qword ptr [rbp - 16]
	mov	rdx, qword ptr [rbp - 24]
	call	__ZNSt3__19allocatorIPNS_4pairIiiEEE10deallocateEPS3_m
	add	rsp, 32
	pop	rbp
	ret
	.cfi_endproc
                                        ## -- End function
	.p2align	4, 0x90                         ## -- Begin function _ZNSt3__114__split_bufferIPNS_4pairIiiEENS_9allocatorIS3_EEE7__allocEv
__ZNSt3__114__split_bufferIPNS_4pairIiiEENS_9allocatorIS3_EEE7__allocEv: ## @_ZNSt3__114__split_bufferIPNS_4pairIiiEENS_9allocatorIS3_EEE7__allocEv
	.cfi_startproc
## %bb.0:
	push	rbp
	.cfi_def_cfa_offset 16
	.cfi_offset rbp, -16
	mov	rbp, rsp
	.cfi_def_cfa_register rbp
	sub	rsp, 16
	mov	qword ptr [rbp - 8], rdi
	mov	rax, qword ptr [rbp - 8]
	add	rax, 24
	mov	rdi, rax
	call	__ZNSt3__117__compressed_pairIPPNS_4pairIiiEENS_9allocatorIS3_EEE6secondEv
	add	rsp, 16
	pop	rbp
	ret
	.cfi_endproc
                                        ## -- End function
	.p2align	4, 0x90                         ## -- Begin function _ZNKSt3__114__split_bufferIPNS_4pairIiiEENS_9allocatorIS3_EEE8capacityEv
__ZNKSt3__114__split_bufferIPNS_4pairIiiEENS_9allocatorIS3_EEE8capacityEv: ## @_ZNKSt3__114__split_bufferIPNS_4pairIiiEENS_9allocatorIS3_EEE8capacityEv
	.cfi_startproc
## %bb.0:
	push	rbp
	.cfi_def_cfa_offset 16
	.cfi_offset rbp, -16
	mov	rbp, rsp
	.cfi_def_cfa_register rbp
	sub	rsp, 16
	mov	qword ptr [rbp - 8], rdi
	mov	rax, qword ptr [rbp - 8]
	mov	rdi, rax
	mov	qword ptr [rbp - 16], rax       ## 8-byte Spill
	call	__ZNKSt3__114__split_bufferIPNS_4pairIiiEENS_9allocatorIS3_EEE9__end_capEv
	mov	rax, qword ptr [rax]
	mov	rcx, qword ptr [rbp - 16]       ## 8-byte Reload
	mov	rdx, qword ptr [rcx]
	sub	rax, rdx
	sar	rax, 3
	add	rsp, 16
	pop	rbp
	ret
	.cfi_endproc
                                        ## -- End function
	.p2align	4, 0x90                         ## -- Begin function _ZNSt3__114__split_bufferIPNS_4pairIiiEENS_9allocatorIS3_EEE17__destruct_at_endEPS3_
__ZNSt3__114__split_bufferIPNS_4pairIiiEENS_9allocatorIS3_EEE17__destruct_at_endEPS3_: ## @_ZNSt3__114__split_bufferIPNS_4pairIiiEENS_9allocatorIS3_EEE17__destruct_at_endEPS3_
	.cfi_startproc
## %bb.0:
	push	rbp
	.cfi_def_cfa_offset 16
	.cfi_offset rbp, -16
	mov	rbp, rsp
	.cfi_def_cfa_register rbp
	sub	rsp, 32
	mov	qword ptr [rbp - 8], rdi
	mov	qword ptr [rbp - 16], rsi
	mov	rdi, qword ptr [rbp - 8]
	mov	rsi, qword ptr [rbp - 16]
	call	__ZNSt3__114__split_bufferIPNS_4pairIiiEENS_9allocatorIS3_EEE17__destruct_at_endEPS3_NS_17integral_constantIbLb0EEE
	add	rsp, 32
	pop	rbp
	ret
	.cfi_endproc
                                        ## -- End function
	.p2align	4, 0x90                         ## -- Begin function _ZNSt3__114__split_bufferIPNS_4pairIiiEENS_9allocatorIS3_EEE17__destruct_at_endEPS3_NS_17integral_constantIbLb0EEE
__ZNSt3__114__split_bufferIPNS_4pairIiiEENS_9allocatorIS3_EEE17__destruct_at_endEPS3_NS_17integral_constantIbLb0EEE: ## @_ZNSt3__114__split_bufferIPNS_4pairIiiEENS_9allocatorIS3_EEE17__destruct_at_endEPS3_NS_17integral_constantIbLb0EEE
Lfunc_begin22:
	.cfi_startproc
	.cfi_personality 155, ___gxx_personality_v0
	.cfi_lsda 16, Lexception22
## %bb.0:
	push	rbp
	.cfi_def_cfa_offset 16
	.cfi_offset rbp, -16
	mov	rbp, rsp
	.cfi_def_cfa_register rbp
	sub	rsp, 48
	mov	qword ptr [rbp - 16], rdi
	mov	qword ptr [rbp - 24], rsi
	mov	rax, qword ptr [rbp - 16]
	mov	qword ptr [rbp - 32], rax       ## 8-byte Spill
LBB200_1:                               ## =>This Inner Loop Header: Depth=1
	mov	rax, qword ptr [rbp - 24]
	mov	rcx, qword ptr [rbp - 32]       ## 8-byte Reload
	cmp	rax, qword ptr [rcx + 16]
	je	LBB200_4
## %bb.2:                               ##   in Loop: Header=BB200_1 Depth=1
	mov	rdi, qword ptr [rbp - 32]       ## 8-byte Reload
	call	__ZNSt3__114__split_bufferIPNS_4pairIiiEENS_9allocatorIS3_EEE7__allocEv
	mov	rcx, qword ptr [rbp - 32]       ## 8-byte Reload
	mov	rdx, qword ptr [rcx + 16]
	add	rdx, -8
	mov	qword ptr [rcx + 16], rdx
	mov	rdi, rdx
	mov	qword ptr [rbp - 40], rax       ## 8-byte Spill
	call	__ZNSt3__1L12__to_addressIPNS_4pairIiiEEEEPT_S5_
Ltmp137:
	mov	rdi, qword ptr [rbp - 40]       ## 8-byte Reload
	mov	rsi, rax
	call	__ZNSt3__116allocator_traitsINS_9allocatorIPNS_4pairIiiEEEEE7destroyIS4_EEvRS5_PT_
Ltmp138:
	jmp	LBB200_3
LBB200_3:                               ##   in Loop: Header=BB200_1 Depth=1
	jmp	LBB200_1
LBB200_4:
	add	rsp, 48
	pop	rbp
	ret
LBB200_5:
Ltmp139:
	mov	rdi, rax
	mov	qword ptr [rbp - 48], rdx       ## 8-byte Spill
	call	___clang_call_terminate
Lfunc_end22:
	.cfi_endproc
	.section	__TEXT,__gcc_except_tab
	.p2align	2
GCC_except_table200:
Lexception22:
	.byte	255                             ## @LPStart Encoding = omit
	.byte	155                             ## @TType Encoding = indirect pcrel sdata4
	.uleb128 Lttbase13-Lttbaseref13
Lttbaseref13:
	.byte	1                               ## Call site Encoding = uleb128
	.uleb128 Lcst_end22-Lcst_begin22
Lcst_begin22:
	.uleb128 Ltmp137-Lfunc_begin22          ## >> Call Site 1 <<
	.uleb128 Ltmp138-Ltmp137                ##   Call between Ltmp137 and Ltmp138
	.uleb128 Ltmp139-Lfunc_begin22          ##     jumps to Ltmp139
	.byte	1                               ##   On action: 1
Lcst_end22:
	.byte	1                               ## >> Action Record 1 <<
                                        ##   Catch TypeInfo 1
	.byte	0                               ##   No further actions
	.p2align	2
                                        ## >> Catch TypeInfos <<
	.long	0                               ## TypeInfo 1
Lttbase13:
	.p2align	2
                                        ## -- End function
	.section	__TEXT,__text,regular,pure_instructions
	.p2align	4, 0x90                         ## -- Begin function _ZNSt3__116allocator_traitsINS_9allocatorIPNS_4pairIiiEEEEE7destroyIS4_EEvRS5_PT_
__ZNSt3__116allocator_traitsINS_9allocatorIPNS_4pairIiiEEEEE7destroyIS4_EEvRS5_PT_: ## @_ZNSt3__116allocator_traitsINS_9allocatorIPNS_4pairIiiEEEEE7destroyIS4_EEvRS5_PT_
	.cfi_startproc
## %bb.0:
	push	rbp
	.cfi_def_cfa_offset 16
	.cfi_offset rbp, -16
	mov	rbp, rsp
	.cfi_def_cfa_register rbp
	sub	rsp, 32
	mov	qword ptr [rbp - 8], rdi
	mov	qword ptr [rbp - 16], rsi
	mov	rdi, qword ptr [rbp - 8]
	mov	rsi, qword ptr [rbp - 16]
	call	__ZNSt3__116allocator_traitsINS_9allocatorIPNS_4pairIiiEEEEE9__destroyIS4_EEvNS_17integral_constantIbLb1EEERS5_PT_
	add	rsp, 32
	pop	rbp
	ret
	.cfi_endproc
                                        ## -- End function
	.p2align	4, 0x90                         ## -- Begin function _ZNSt3__1L12__to_addressIPNS_4pairIiiEEEEPT_S5_
__ZNSt3__1L12__to_addressIPNS_4pairIiiEEEEPT_S5_: ## @_ZNSt3__1L12__to_addressIPNS_4pairIiiEEEEPT_S5_
	.cfi_startproc
## %bb.0:
	push	rbp
	.cfi_def_cfa_offset 16
	.cfi_offset rbp, -16
	mov	rbp, rsp
	.cfi_def_cfa_register rbp
	mov	qword ptr [rbp - 8], rdi
	mov	rax, qword ptr [rbp - 8]
	pop	rbp
	ret
	.cfi_endproc
                                        ## -- End function
	.p2align	4, 0x90                         ## -- Begin function _ZNSt3__116allocator_traitsINS_9allocatorIPNS_4pairIiiEEEEE9__destroyIS4_EEvNS_17integral_constantIbLb1EEERS5_PT_
__ZNSt3__116allocator_traitsINS_9allocatorIPNS_4pairIiiEEEEE9__destroyIS4_EEvNS_17integral_constantIbLb1EEERS5_PT_: ## @_ZNSt3__116allocator_traitsINS_9allocatorIPNS_4pairIiiEEEEE9__destroyIS4_EEvNS_17integral_constantIbLb1EEERS5_PT_
	.cfi_startproc
## %bb.0:
	push	rbp
	.cfi_def_cfa_offset 16
	.cfi_offset rbp, -16
	mov	rbp, rsp
	.cfi_def_cfa_register rbp
	sub	rsp, 32
	mov	qword ptr [rbp - 16], rdi
	mov	qword ptr [rbp - 24], rsi
	mov	rdi, qword ptr [rbp - 16]
	mov	rsi, qword ptr [rbp - 24]
	call	__ZNSt3__19allocatorIPNS_4pairIiiEEE7destroyEPS3_
	add	rsp, 32
	pop	rbp
	ret
	.cfi_endproc
                                        ## -- End function
	.p2align	4, 0x90                         ## -- Begin function _ZNSt3__19allocatorIPNS_4pairIiiEEE7destroyEPS3_
__ZNSt3__19allocatorIPNS_4pairIiiEEE7destroyEPS3_: ## @_ZNSt3__19allocatorIPNS_4pairIiiEEE7destroyEPS3_
	.cfi_startproc
## %bb.0:
	push	rbp
	.cfi_def_cfa_offset 16
	.cfi_offset rbp, -16
	mov	rbp, rsp
	.cfi_def_cfa_register rbp
	mov	qword ptr [rbp - 8], rdi
	mov	qword ptr [rbp - 16], rsi
	pop	rbp
	ret
	.cfi_endproc
                                        ## -- End function
	.p2align	4, 0x90                         ## -- Begin function _ZNSt3__19allocatorIPNS_4pairIiiEEE10deallocateEPS3_m
__ZNSt3__19allocatorIPNS_4pairIiiEEE10deallocateEPS3_m: ## @_ZNSt3__19allocatorIPNS_4pairIiiEEE10deallocateEPS3_m
Lfunc_begin23:
	.cfi_startproc
	.cfi_personality 155, ___gxx_personality_v0
	.cfi_lsda 16, Lexception23
## %bb.0:
	push	rbp
	.cfi_def_cfa_offset 16
	.cfi_offset rbp, -16
	mov	rbp, rsp
	.cfi_def_cfa_register rbp
	sub	rsp, 32
	mov	qword ptr [rbp - 8], rdi
	mov	qword ptr [rbp - 16], rsi
	mov	qword ptr [rbp - 24], rdx
	mov	rdi, qword ptr [rbp - 16]
	mov	rax, qword ptr [rbp - 24]
	shl	rax, 3
Ltmp140:
	mov	edx, 8
	mov	rsi, rax
	call	__ZNSt3__1L19__libcpp_deallocateEPvmm
Ltmp141:
	jmp	LBB205_1
LBB205_1:
	add	rsp, 32
	pop	rbp
	ret
LBB205_2:
Ltmp142:
	mov	rdi, rax
	mov	qword ptr [rbp - 32], rdx       ## 8-byte Spill
	call	___clang_call_terminate
Lfunc_end23:
	.cfi_endproc
	.section	__TEXT,__gcc_except_tab
	.p2align	2
GCC_except_table205:
Lexception23:
	.byte	255                             ## @LPStart Encoding = omit
	.byte	155                             ## @TType Encoding = indirect pcrel sdata4
	.uleb128 Lttbase14-Lttbaseref14
Lttbaseref14:
	.byte	1                               ## Call site Encoding = uleb128
	.uleb128 Lcst_end23-Lcst_begin23
Lcst_begin23:
	.uleb128 Ltmp140-Lfunc_begin23          ## >> Call Site 1 <<
	.uleb128 Ltmp141-Ltmp140                ##   Call between Ltmp140 and Ltmp141
	.uleb128 Ltmp142-Lfunc_begin23          ##     jumps to Ltmp142
	.byte	1                               ##   On action: 1
Lcst_end23:
	.byte	1                               ## >> Action Record 1 <<
                                        ##   Catch TypeInfo 1
	.byte	0                               ##   No further actions
	.p2align	2
                                        ## >> Catch TypeInfos <<
	.long	0                               ## TypeInfo 1
Lttbase14:
	.p2align	2
                                        ## -- End function
	.section	__TEXT,__text,regular,pure_instructions
	.p2align	4, 0x90                         ## -- Begin function _ZNSt3__117__compressed_pairIPPNS_4pairIiiEENS_9allocatorIS3_EEE6secondEv
__ZNSt3__117__compressed_pairIPPNS_4pairIiiEENS_9allocatorIS3_EEE6secondEv: ## @_ZNSt3__117__compressed_pairIPPNS_4pairIiiEENS_9allocatorIS3_EEE6secondEv
	.cfi_startproc
## %bb.0:
	push	rbp
	.cfi_def_cfa_offset 16
	.cfi_offset rbp, -16
	mov	rbp, rsp
	.cfi_def_cfa_register rbp
	sub	rsp, 16
	mov	qword ptr [rbp - 8], rdi
	mov	rax, qword ptr [rbp - 8]
	mov	rdi, rax
	call	__ZNSt3__122__compressed_pair_elemINS_9allocatorIPNS_4pairIiiEEEELi1ELb1EE5__getEv
	add	rsp, 16
	pop	rbp
	ret
	.cfi_endproc
                                        ## -- End function
	.p2align	4, 0x90                         ## -- Begin function _ZNSt3__122__compressed_pair_elemINS_9allocatorIPNS_4pairIiiEEEELi1ELb1EE5__getEv
__ZNSt3__122__compressed_pair_elemINS_9allocatorIPNS_4pairIiiEEEELi1ELb1EE5__getEv: ## @_ZNSt3__122__compressed_pair_elemINS_9allocatorIPNS_4pairIiiEEEELi1ELb1EE5__getEv
	.cfi_startproc
## %bb.0:
	push	rbp
	.cfi_def_cfa_offset 16
	.cfi_offset rbp, -16
	mov	rbp, rsp
	.cfi_def_cfa_register rbp
	mov	qword ptr [rbp - 8], rdi
	mov	rax, qword ptr [rbp - 8]
	pop	rbp
	ret
	.cfi_endproc
                                        ## -- End function
	.p2align	4, 0x90                         ## -- Begin function _ZNKSt3__114__split_bufferIPNS_4pairIiiEENS_9allocatorIS3_EEE9__end_capEv
__ZNKSt3__114__split_bufferIPNS_4pairIiiEENS_9allocatorIS3_EEE9__end_capEv: ## @_ZNKSt3__114__split_bufferIPNS_4pairIiiEENS_9allocatorIS3_EEE9__end_capEv
	.cfi_startproc
## %bb.0:
	push	rbp
	.cfi_def_cfa_offset 16
	.cfi_offset rbp, -16
	mov	rbp, rsp
	.cfi_def_cfa_register rbp
	sub	rsp, 16
	mov	qword ptr [rbp - 8], rdi
	mov	rax, qword ptr [rbp - 8]
	add	rax, 24
	mov	rdi, rax
	call	__ZNKSt3__117__compressed_pairIPPNS_4pairIiiEENS_9allocatorIS3_EEE5firstEv
	add	rsp, 16
	pop	rbp
	ret
	.cfi_endproc
                                        ## -- End function
	.p2align	4, 0x90                         ## -- Begin function _ZNKSt3__117__compressed_pairIPPNS_4pairIiiEENS_9allocatorIS3_EEE5firstEv
__ZNKSt3__117__compressed_pairIPPNS_4pairIiiEENS_9allocatorIS3_EEE5firstEv: ## @_ZNKSt3__117__compressed_pairIPPNS_4pairIiiEENS_9allocatorIS3_EEE5firstEv
	.cfi_startproc
## %bb.0:
	push	rbp
	.cfi_def_cfa_offset 16
	.cfi_offset rbp, -16
	mov	rbp, rsp
	.cfi_def_cfa_register rbp
	sub	rsp, 16
	mov	qword ptr [rbp - 8], rdi
	mov	rax, qword ptr [rbp - 8]
	mov	rdi, rax
	call	__ZNKSt3__122__compressed_pair_elemIPPNS_4pairIiiEELi0ELb0EE5__getEv
	add	rsp, 16
	pop	rbp
	ret
	.cfi_endproc
                                        ## -- End function
	.p2align	4, 0x90                         ## -- Begin function _ZNKSt3__122__compressed_pair_elemIPPNS_4pairIiiEELi0ELb0EE5__getEv
__ZNKSt3__122__compressed_pair_elemIPPNS_4pairIiiEELi0ELb0EE5__getEv: ## @_ZNKSt3__122__compressed_pair_elemIPPNS_4pairIiiEELi0ELb0EE5__getEv
	.cfi_startproc
## %bb.0:
	push	rbp
	.cfi_def_cfa_offset 16
	.cfi_offset rbp, -16
	mov	rbp, rsp
	.cfi_def_cfa_register rbp
	mov	qword ptr [rbp - 8], rdi
	mov	rax, qword ptr [rbp - 8]
	pop	rbp
	ret
	.cfi_endproc
                                        ## -- End function
	.p2align	4, 0x90                         ## -- Begin function _ZNSt3__13setINS_4pairIiiEENS_4lessIS2_EENS_9allocatorIS2_EEEC2Ev
__ZNSt3__13setINS_4pairIiiEENS_4lessIS2_EENS_9allocatorIS2_EEEC2Ev: ## @_ZNSt3__13setINS_4pairIiiEENS_4lessIS2_EENS_9allocatorIS2_EEEC2Ev
	.cfi_startproc
## %bb.0:
	push	rbp
	.cfi_def_cfa_offset 16
	.cfi_offset rbp, -16
	mov	rbp, rsp
	.cfi_def_cfa_register rbp
	sub	rsp, 16
	mov	qword ptr [rbp - 8], rdi
	mov	rdi, qword ptr [rbp - 8]
	lea	rsi, [rbp - 16]
	call	__ZNSt3__16__treeINS_4pairIiiEENS_4lessIS2_EENS_9allocatorIS2_EEEC1ERKS4_
	add	rsp, 16
	pop	rbp
	ret
	.cfi_endproc
                                        ## -- End function
	.globl	__ZNSt3__16__treeINS_4pairIiiEENS_4lessIS2_EENS_9allocatorIS2_EEEC1ERKS4_ ## -- Begin function _ZNSt3__16__treeINS_4pairIiiEENS_4lessIS2_EENS_9allocatorIS2_EEEC1ERKS4_
	.weak_def_can_be_hidden	__ZNSt3__16__treeINS_4pairIiiEENS_4lessIS2_EENS_9allocatorIS2_EEEC1ERKS4_
	.p2align	4, 0x90
__ZNSt3__16__treeINS_4pairIiiEENS_4lessIS2_EENS_9allocatorIS2_EEEC1ERKS4_: ## @_ZNSt3__16__treeINS_4pairIiiEENS_4lessIS2_EENS_9allocatorIS2_EEEC1ERKS4_
	.cfi_startproc
## %bb.0:
	push	rbp
	.cfi_def_cfa_offset 16
	.cfi_offset rbp, -16
	mov	rbp, rsp
	.cfi_def_cfa_register rbp
	sub	rsp, 16
	mov	qword ptr [rbp - 8], rdi
	mov	qword ptr [rbp - 16], rsi
	mov	rdi, qword ptr [rbp - 8]
	mov	rsi, qword ptr [rbp - 16]
	call	__ZNSt3__16__treeINS_4pairIiiEENS_4lessIS2_EENS_9allocatorIS2_EEEC2ERKS4_
	add	rsp, 16
	pop	rbp
	ret
	.cfi_endproc
                                        ## -- End function
	.globl	__ZNSt3__16__treeINS_4pairIiiEENS_4lessIS2_EENS_9allocatorIS2_EEEC2ERKS4_ ## -- Begin function _ZNSt3__16__treeINS_4pairIiiEENS_4lessIS2_EENS_9allocatorIS2_EEEC2ERKS4_
	.weak_def_can_be_hidden	__ZNSt3__16__treeINS_4pairIiiEENS_4lessIS2_EENS_9allocatorIS2_EEEC2ERKS4_
	.p2align	4, 0x90
__ZNSt3__16__treeINS_4pairIiiEENS_4lessIS2_EENS_9allocatorIS2_EEEC2ERKS4_: ## @_ZNSt3__16__treeINS_4pairIiiEENS_4lessIS2_EENS_9allocatorIS2_EEEC2ERKS4_
Lfunc_begin24:
	.cfi_startproc
	.cfi_personality 155, ___gxx_personality_v0
	.cfi_lsda 16, Lexception24
## %bb.0:
	push	rbp
	.cfi_def_cfa_offset 16
	.cfi_offset rbp, -16
	mov	rbp, rsp
	.cfi_def_cfa_register rbp
	sub	rsp, 48
	mov	qword ptr [rbp - 8], rdi
	mov	qword ptr [rbp - 16], rsi
	mov	rax, qword ptr [rbp - 8]
	mov	rcx, rax
	add	rcx, 8
Ltmp143:
	mov	rdi, rcx
	mov	qword ptr [rbp - 32], rax       ## 8-byte Spill
	call	__ZNSt3__117__compressed_pairINS_15__tree_end_nodeIPNS_16__tree_node_baseIPvEEEENS_9allocatorINS_11__tree_nodeINS_4pairIiiEES3_EEEEEC1ILb1EvEEv
Ltmp144:
	jmp	LBB213_1
LBB213_1:
	mov	rax, qword ptr [rbp - 32]       ## 8-byte Reload
	add	rax, 16
	mov	dword ptr [rbp - 20], 0
	mov	rdx, qword ptr [rbp - 16]
Ltmp145:
	lea	rsi, [rbp - 20]
	mov	rdi, rax
	call	__ZNSt3__117__compressed_pairImNS_4lessINS_4pairIiiEEEEEC1IiRKS4_EEOT_OT0_
Ltmp146:
	jmp	LBB213_2
LBB213_2:
	mov	rdi, qword ptr [rbp - 32]       ## 8-byte Reload
	call	__ZNSt3__16__treeINS_4pairIiiEENS_4lessIS2_EENS_9allocatorIS2_EEE10__end_nodeEv
	mov	rdi, qword ptr [rbp - 32]       ## 8-byte Reload
	mov	qword ptr [rbp - 40], rax       ## 8-byte Spill
	call	__ZNSt3__16__treeINS_4pairIiiEENS_4lessIS2_EENS_9allocatorIS2_EEE12__begin_nodeEv
	mov	rcx, qword ptr [rbp - 40]       ## 8-byte Reload
	mov	qword ptr [rax], rcx
	add	rsp, 48
	pop	rbp
	ret
LBB213_3:
Ltmp147:
	mov	rdi, rax
	mov	qword ptr [rbp - 48], rdx       ## 8-byte Spill
	call	___clang_call_terminate
Lfunc_end24:
	.cfi_endproc
	.section	__TEXT,__gcc_except_tab
	.p2align	2
GCC_except_table213:
Lexception24:
	.byte	255                             ## @LPStart Encoding = omit
	.byte	155                             ## @TType Encoding = indirect pcrel sdata4
	.uleb128 Lttbase15-Lttbaseref15
Lttbaseref15:
	.byte	1                               ## Call site Encoding = uleb128
	.uleb128 Lcst_end24-Lcst_begin24
Lcst_begin24:
	.uleb128 Ltmp143-Lfunc_begin24          ## >> Call Site 1 <<
	.uleb128 Ltmp146-Ltmp143                ##   Call between Ltmp143 and Ltmp146
	.uleb128 Ltmp147-Lfunc_begin24          ##     jumps to Ltmp147
	.byte	1                               ##   On action: 1
Lcst_end24:
	.byte	1                               ## >> Action Record 1 <<
                                        ##   Catch TypeInfo 1
	.byte	0                               ##   No further actions
	.p2align	2
                                        ## >> Catch TypeInfos <<
	.long	0                               ## TypeInfo 1
Lttbase15:
	.p2align	2
                                        ## -- End function
	.section	__TEXT,__text,regular,pure_instructions
	.p2align	4, 0x90                         ## -- Begin function _ZNSt3__117__compressed_pairINS_15__tree_end_nodeIPNS_16__tree_node_baseIPvEEEENS_9allocatorINS_11__tree_nodeINS_4pairIiiEES3_EEEEEC1ILb1EvEEv
__ZNSt3__117__compressed_pairINS_15__tree_end_nodeIPNS_16__tree_node_baseIPvEEEENS_9allocatorINS_11__tree_nodeINS_4pairIiiEES3_EEEEEC1ILb1EvEEv: ## @_ZNSt3__117__compressed_pairINS_15__tree_end_nodeIPNS_16__tree_node_baseIPvEEEENS_9allocatorINS_11__tree_nodeINS_4pairIiiEES3_EEEEEC1ILb1EvEEv
	.cfi_startproc
## %bb.0:
	push	rbp
	.cfi_def_cfa_offset 16
	.cfi_offset rbp, -16
	mov	rbp, rsp
	.cfi_def_cfa_register rbp
	sub	rsp, 16
	mov	qword ptr [rbp - 8], rdi
	mov	rdi, qword ptr [rbp - 8]
	call	__ZNSt3__117__compressed_pairINS_15__tree_end_nodeIPNS_16__tree_node_baseIPvEEEENS_9allocatorINS_11__tree_nodeINS_4pairIiiEES3_EEEEEC2ILb1EvEEv
	add	rsp, 16
	pop	rbp
	ret
	.cfi_endproc
                                        ## -- End function
	.p2align	4, 0x90                         ## -- Begin function _ZNSt3__117__compressed_pairImNS_4lessINS_4pairIiiEEEEEC1IiRKS4_EEOT_OT0_
__ZNSt3__117__compressed_pairImNS_4lessINS_4pairIiiEEEEEC1IiRKS4_EEOT_OT0_: ## @_ZNSt3__117__compressed_pairImNS_4lessINS_4pairIiiEEEEEC1IiRKS4_EEOT_OT0_
	.cfi_startproc
## %bb.0:
	push	rbp
	.cfi_def_cfa_offset 16
	.cfi_offset rbp, -16
	mov	rbp, rsp
	.cfi_def_cfa_register rbp
	sub	rsp, 32
	mov	qword ptr [rbp - 8], rdi
	mov	qword ptr [rbp - 16], rsi
	mov	qword ptr [rbp - 24], rdx
	mov	rdi, qword ptr [rbp - 8]
	mov	rsi, qword ptr [rbp - 16]
	mov	rdx, qword ptr [rbp - 24]
	call	__ZNSt3__117__compressed_pairImNS_4lessINS_4pairIiiEEEEEC2IiRKS4_EEOT_OT0_
	add	rsp, 32
	pop	rbp
	ret
	.cfi_endproc
                                        ## -- End function
	.p2align	4, 0x90                         ## -- Begin function _ZNSt3__16__treeINS_4pairIiiEENS_4lessIS2_EENS_9allocatorIS2_EEE10__end_nodeEv
__ZNSt3__16__treeINS_4pairIiiEENS_4lessIS2_EENS_9allocatorIS2_EEE10__end_nodeEv: ## @_ZNSt3__16__treeINS_4pairIiiEENS_4lessIS2_EENS_9allocatorIS2_EEE10__end_nodeEv
	.cfi_startproc
## %bb.0:
	push	rbp
	.cfi_def_cfa_offset 16
	.cfi_offset rbp, -16
	mov	rbp, rsp
	.cfi_def_cfa_register rbp
	sub	rsp, 16
	mov	qword ptr [rbp - 8], rdi
	mov	rax, qword ptr [rbp - 8]
	add	rax, 8
	mov	rdi, rax
	call	__ZNSt3__117__compressed_pairINS_15__tree_end_nodeIPNS_16__tree_node_baseIPvEEEENS_9allocatorINS_11__tree_nodeINS_4pairIiiEES3_EEEEE5firstEv
	mov	rdi, rax
	call	__ZNSt3__114pointer_traitsIPNS_15__tree_end_nodeIPNS_16__tree_node_baseIPvEEEEE10pointer_toERS6_
	add	rsp, 16
	pop	rbp
	ret
	.cfi_endproc
                                        ## -- End function
	.p2align	4, 0x90                         ## -- Begin function _ZNSt3__16__treeINS_4pairIiiEENS_4lessIS2_EENS_9allocatorIS2_EEE12__begin_nodeEv
__ZNSt3__16__treeINS_4pairIiiEENS_4lessIS2_EENS_9allocatorIS2_EEE12__begin_nodeEv: ## @_ZNSt3__16__treeINS_4pairIiiEENS_4lessIS2_EENS_9allocatorIS2_EEE12__begin_nodeEv
	.cfi_startproc
## %bb.0:
	push	rbp
	.cfi_def_cfa_offset 16
	.cfi_offset rbp, -16
	mov	rbp, rsp
	.cfi_def_cfa_register rbp
	mov	qword ptr [rbp - 8], rdi
	mov	rax, qword ptr [rbp - 8]
	pop	rbp
	ret
	.cfi_endproc
                                        ## -- End function
	.p2align	4, 0x90                         ## -- Begin function _ZNSt3__117__compressed_pairINS_15__tree_end_nodeIPNS_16__tree_node_baseIPvEEEENS_9allocatorINS_11__tree_nodeINS_4pairIiiEES3_EEEEEC2ILb1EvEEv
__ZNSt3__117__compressed_pairINS_15__tree_end_nodeIPNS_16__tree_node_baseIPvEEEENS_9allocatorINS_11__tree_nodeINS_4pairIiiEES3_EEEEEC2ILb1EvEEv: ## @_ZNSt3__117__compressed_pairINS_15__tree_end_nodeIPNS_16__tree_node_baseIPvEEEENS_9allocatorINS_11__tree_nodeINS_4pairIiiEES3_EEEEEC2ILb1EvEEv
	.cfi_startproc
## %bb.0:
	push	rbp
	.cfi_def_cfa_offset 16
	.cfi_offset rbp, -16
	mov	rbp, rsp
	.cfi_def_cfa_register rbp
	sub	rsp, 32
	mov	qword ptr [rbp - 8], rdi
	mov	rax, qword ptr [rbp - 8]
	mov	rcx, rax
	mov	rdi, rcx
	mov	qword ptr [rbp - 32], rax       ## 8-byte Spill
	call	__ZNSt3__122__compressed_pair_elemINS_15__tree_end_nodeIPNS_16__tree_node_baseIPvEEEELi0ELb0EEC2ENS_16__value_init_tagE
	mov	rax, qword ptr [rbp - 32]       ## 8-byte Reload
	mov	rdi, rax
	call	__ZNSt3__122__compressed_pair_elemINS_9allocatorINS_11__tree_nodeINS_4pairIiiEEPvEEEELi1ELb1EEC2ENS_16__value_init_tagE
	add	rsp, 32
	pop	rbp
	ret
	.cfi_endproc
                                        ## -- End function
	.p2align	4, 0x90                         ## -- Begin function _ZNSt3__122__compressed_pair_elemINS_15__tree_end_nodeIPNS_16__tree_node_baseIPvEEEELi0ELb0EEC2ENS_16__value_init_tagE
__ZNSt3__122__compressed_pair_elemINS_15__tree_end_nodeIPNS_16__tree_node_baseIPvEEEELi0ELb0EEC2ENS_16__value_init_tagE: ## @_ZNSt3__122__compressed_pair_elemINS_15__tree_end_nodeIPNS_16__tree_node_baseIPvEEEELi0ELb0EEC2ENS_16__value_init_tagE
	.cfi_startproc
## %bb.0:
	push	rbp
	.cfi_def_cfa_offset 16
	.cfi_offset rbp, -16
	mov	rbp, rsp
	.cfi_def_cfa_register rbp
	sub	rsp, 16
	mov	qword ptr [rbp - 16], rdi
	mov	rdi, qword ptr [rbp - 16]
	call	__ZNSt3__115__tree_end_nodeIPNS_16__tree_node_baseIPvEEEC1Ev
	add	rsp, 16
	pop	rbp
	ret
	.cfi_endproc
                                        ## -- End function
	.p2align	4, 0x90                         ## -- Begin function _ZNSt3__122__compressed_pair_elemINS_9allocatorINS_11__tree_nodeINS_4pairIiiEEPvEEEELi1ELb1EEC2ENS_16__value_init_tagE
__ZNSt3__122__compressed_pair_elemINS_9allocatorINS_11__tree_nodeINS_4pairIiiEEPvEEEELi1ELb1EEC2ENS_16__value_init_tagE: ## @_ZNSt3__122__compressed_pair_elemINS_9allocatorINS_11__tree_nodeINS_4pairIiiEEPvEEEELi1ELb1EEC2ENS_16__value_init_tagE
	.cfi_startproc
## %bb.0:
	push	rbp
	.cfi_def_cfa_offset 16
	.cfi_offset rbp, -16
	mov	rbp, rsp
	.cfi_def_cfa_register rbp
	sub	rsp, 16
	mov	qword ptr [rbp - 16], rdi
	mov	rax, qword ptr [rbp - 16]
	mov	rdi, rax
	call	__ZNSt3__19allocatorINS_11__tree_nodeINS_4pairIiiEEPvEEEC2Ev
	add	rsp, 16
	pop	rbp
	ret
	.cfi_endproc
                                        ## -- End function
	.p2align	4, 0x90                         ## -- Begin function _ZNSt3__115__tree_end_nodeIPNS_16__tree_node_baseIPvEEEC1Ev
__ZNSt3__115__tree_end_nodeIPNS_16__tree_node_baseIPvEEEC1Ev: ## @_ZNSt3__115__tree_end_nodeIPNS_16__tree_node_baseIPvEEEC1Ev
	.cfi_startproc
## %bb.0:
	push	rbp
	.cfi_def_cfa_offset 16
	.cfi_offset rbp, -16
	mov	rbp, rsp
	.cfi_def_cfa_register rbp
	sub	rsp, 16
	mov	qword ptr [rbp - 8], rdi
	mov	rdi, qword ptr [rbp - 8]
	call	__ZNSt3__115__tree_end_nodeIPNS_16__tree_node_baseIPvEEEC2Ev
	add	rsp, 16
	pop	rbp
	ret
	.cfi_endproc
                                        ## -- End function
	.p2align	4, 0x90                         ## -- Begin function _ZNSt3__115__tree_end_nodeIPNS_16__tree_node_baseIPvEEEC2Ev
__ZNSt3__115__tree_end_nodeIPNS_16__tree_node_baseIPvEEEC2Ev: ## @_ZNSt3__115__tree_end_nodeIPNS_16__tree_node_baseIPvEEEC2Ev
	.cfi_startproc
## %bb.0:
	push	rbp
	.cfi_def_cfa_offset 16
	.cfi_offset rbp, -16
	mov	rbp, rsp
	.cfi_def_cfa_register rbp
	mov	qword ptr [rbp - 8], rdi
	mov	rax, qword ptr [rbp - 8]
	mov	qword ptr [rax], 0
	pop	rbp
	ret
	.cfi_endproc
                                        ## -- End function
	.p2align	4, 0x90                         ## -- Begin function _ZNSt3__19allocatorINS_11__tree_nodeINS_4pairIiiEEPvEEEC2Ev
__ZNSt3__19allocatorINS_11__tree_nodeINS_4pairIiiEEPvEEEC2Ev: ## @_ZNSt3__19allocatorINS_11__tree_nodeINS_4pairIiiEEPvEEEC2Ev
	.cfi_startproc
## %bb.0:
	push	rbp
	.cfi_def_cfa_offset 16
	.cfi_offset rbp, -16
	mov	rbp, rsp
	.cfi_def_cfa_register rbp
	mov	qword ptr [rbp - 8], rdi
	pop	rbp
	ret
	.cfi_endproc
                                        ## -- End function
	.p2align	4, 0x90                         ## -- Begin function _ZNSt3__117__compressed_pairImNS_4lessINS_4pairIiiEEEEEC2IiRKS4_EEOT_OT0_
__ZNSt3__117__compressed_pairImNS_4lessINS_4pairIiiEEEEEC2IiRKS4_EEOT_OT0_: ## @_ZNSt3__117__compressed_pairImNS_4lessINS_4pairIiiEEEEEC2IiRKS4_EEOT_OT0_
	.cfi_startproc
## %bb.0:
	push	rbp
	.cfi_def_cfa_offset 16
	.cfi_offset rbp, -16
	mov	rbp, rsp
	.cfi_def_cfa_register rbp
	sub	rsp, 48
	mov	qword ptr [rbp - 8], rdi
	mov	qword ptr [rbp - 16], rsi
	mov	qword ptr [rbp - 24], rdx
	mov	rax, qword ptr [rbp - 8]
	mov	rcx, rax
	mov	rdi, qword ptr [rbp - 16]
	mov	qword ptr [rbp - 32], rax       ## 8-byte Spill
	mov	qword ptr [rbp - 40], rcx       ## 8-byte Spill
	call	__ZNSt3__1L7forwardIiEEOT_RNS_16remove_referenceIS1_E4typeE
	mov	rdi, qword ptr [rbp - 40]       ## 8-byte Reload
	mov	rsi, rax
	call	__ZNSt3__122__compressed_pair_elemImLi0ELb0EEC2IivEEOT_
	mov	rax, qword ptr [rbp - 32]       ## 8-byte Reload
	mov	rdi, qword ptr [rbp - 24]
	mov	qword ptr [rbp - 48], rax       ## 8-byte Spill
	call	__ZNSt3__1L7forwardIRKNS_4lessINS_4pairIiiEEEEEEOT_RNS_16remove_referenceIS7_E4typeE
	mov	rdi, qword ptr [rbp - 48]       ## 8-byte Reload
	mov	rsi, rax
	call	__ZNSt3__122__compressed_pair_elemINS_4lessINS_4pairIiiEEEELi1ELb1EEC2IRKS4_vEEOT_
	add	rsp, 48
	pop	rbp
	ret
	.cfi_endproc
                                        ## -- End function
	.p2align	4, 0x90                         ## -- Begin function _ZNSt3__1L7forwardIRKNS_4lessINS_4pairIiiEEEEEEOT_RNS_16remove_referenceIS7_E4typeE
__ZNSt3__1L7forwardIRKNS_4lessINS_4pairIiiEEEEEEOT_RNS_16remove_referenceIS7_E4typeE: ## @_ZNSt3__1L7forwardIRKNS_4lessINS_4pairIiiEEEEEEOT_RNS_16remove_referenceIS7_E4typeE
	.cfi_startproc
## %bb.0:
	push	rbp
	.cfi_def_cfa_offset 16
	.cfi_offset rbp, -16
	mov	rbp, rsp
	.cfi_def_cfa_register rbp
	mov	qword ptr [rbp - 8], rdi
	mov	rax, qword ptr [rbp - 8]
	pop	rbp
	ret
	.cfi_endproc
                                        ## -- End function
	.p2align	4, 0x90                         ## -- Begin function _ZNSt3__122__compressed_pair_elemINS_4lessINS_4pairIiiEEEELi1ELb1EEC2IRKS4_vEEOT_
__ZNSt3__122__compressed_pair_elemINS_4lessINS_4pairIiiEEEELi1ELb1EEC2IRKS4_vEEOT_: ## @_ZNSt3__122__compressed_pair_elemINS_4lessINS_4pairIiiEEEELi1ELb1EEC2IRKS4_vEEOT_
	.cfi_startproc
## %bb.0:
	push	rbp
	.cfi_def_cfa_offset 16
	.cfi_offset rbp, -16
	mov	rbp, rsp
	.cfi_def_cfa_register rbp
	sub	rsp, 16
	mov	qword ptr [rbp - 8], rdi
	mov	qword ptr [rbp - 16], rsi
	mov	rdi, qword ptr [rbp - 16]
	call	__ZNSt3__1L7forwardIRKNS_4lessINS_4pairIiiEEEEEEOT_RNS_16remove_referenceIS7_E4typeE
	add	rsp, 16
	pop	rbp
	ret
	.cfi_endproc
                                        ## -- End function
	.p2align	4, 0x90                         ## -- Begin function _ZNSt3__114pointer_traitsIPNS_15__tree_end_nodeIPNS_16__tree_node_baseIPvEEEEE10pointer_toERS6_
__ZNSt3__114pointer_traitsIPNS_15__tree_end_nodeIPNS_16__tree_node_baseIPvEEEEE10pointer_toERS6_: ## @_ZNSt3__114pointer_traitsIPNS_15__tree_end_nodeIPNS_16__tree_node_baseIPvEEEEE10pointer_toERS6_
	.cfi_startproc
## %bb.0:
	push	rbp
	.cfi_def_cfa_offset 16
	.cfi_offset rbp, -16
	mov	rbp, rsp
	.cfi_def_cfa_register rbp
	sub	rsp, 16
	mov	qword ptr [rbp - 8], rdi
	mov	rdi, qword ptr [rbp - 8]
	call	__ZNSt3__1L9addressofINS_15__tree_end_nodeIPNS_16__tree_node_baseIPvEEEEEEPT_RS7_
	add	rsp, 16
	pop	rbp
	ret
	.cfi_endproc
                                        ## -- End function
	.p2align	4, 0x90                         ## -- Begin function _ZNSt3__117__compressed_pairINS_15__tree_end_nodeIPNS_16__tree_node_baseIPvEEEENS_9allocatorINS_11__tree_nodeINS_4pairIiiEES3_EEEEE5firstEv
__ZNSt3__117__compressed_pairINS_15__tree_end_nodeIPNS_16__tree_node_baseIPvEEEENS_9allocatorINS_11__tree_nodeINS_4pairIiiEES3_EEEEE5firstEv: ## @_ZNSt3__117__compressed_pairINS_15__tree_end_nodeIPNS_16__tree_node_baseIPvEEEENS_9allocatorINS_11__tree_nodeINS_4pairIiiEES3_EEEEE5firstEv
	.cfi_startproc
## %bb.0:
	push	rbp
	.cfi_def_cfa_offset 16
	.cfi_offset rbp, -16
	mov	rbp, rsp
	.cfi_def_cfa_register rbp
	sub	rsp, 16
	mov	qword ptr [rbp - 8], rdi
	mov	rax, qword ptr [rbp - 8]
	mov	rdi, rax
	call	__ZNSt3__122__compressed_pair_elemINS_15__tree_end_nodeIPNS_16__tree_node_baseIPvEEEELi0ELb0EE5__getEv
	add	rsp, 16
	pop	rbp
	ret
	.cfi_endproc
                                        ## -- End function
	.p2align	4, 0x90                         ## -- Begin function _ZNSt3__1L9addressofINS_15__tree_end_nodeIPNS_16__tree_node_baseIPvEEEEEEPT_RS7_
__ZNSt3__1L9addressofINS_15__tree_end_nodeIPNS_16__tree_node_baseIPvEEEEEEPT_RS7_: ## @_ZNSt3__1L9addressofINS_15__tree_end_nodeIPNS_16__tree_node_baseIPvEEEEEEPT_RS7_
	.cfi_startproc
## %bb.0:
	push	rbp
	.cfi_def_cfa_offset 16
	.cfi_offset rbp, -16
	mov	rbp, rsp
	.cfi_def_cfa_register rbp
	mov	qword ptr [rbp - 8], rdi
	mov	rax, qword ptr [rbp - 8]
	pop	rbp
	ret
	.cfi_endproc
                                        ## -- End function
	.p2align	4, 0x90                         ## -- Begin function _ZNSt3__122__compressed_pair_elemINS_15__tree_end_nodeIPNS_16__tree_node_baseIPvEEEELi0ELb0EE5__getEv
__ZNSt3__122__compressed_pair_elemINS_15__tree_end_nodeIPNS_16__tree_node_baseIPvEEEELi0ELb0EE5__getEv: ## @_ZNSt3__122__compressed_pair_elemINS_15__tree_end_nodeIPNS_16__tree_node_baseIPvEEEELi0ELb0EE5__getEv
	.cfi_startproc
## %bb.0:
	push	rbp
	.cfi_def_cfa_offset 16
	.cfi_offset rbp, -16
	mov	rbp, rsp
	.cfi_def_cfa_register rbp
	mov	qword ptr [rbp - 8], rdi
	mov	rax, qword ptr [rbp - 8]
	pop	rbp
	ret
	.cfi_endproc
                                        ## -- End function
